ARM GAS  C:\Users\Tudor\AppData\Local\Temp\cc7wucJL.s 			page 1


   1              		.syntax unified
   2              		.cpu cortex-m0
   3              		.fpu softvfp
   4              		.eabi_attribute 20, 1
   5              		.eabi_attribute 21, 1
   6              		.eabi_attribute 23, 3
   7              		.eabi_attribute 24, 1
   8              		.eabi_attribute 25, 1
   9              		.eabi_attribute 26, 1
  10              		.eabi_attribute 30, 6
  11              		.eabi_attribute 34, 0
  12              		.eabi_attribute 18, 4
  13              		.thumb
  14              		.syntax unified
  15              		.file	"BLE_functions.c"
  16              		.text
  17              	.Ltext0:
  18              		.cfi_sections	.debug_frame
  19              		.section	.text.InitializeSystem,"ax",%progbits
  20              		.align	2
  21              		.global	InitializeSystem
  22              		.code	16
  23              		.thumb_func
  24              		.type	InitializeSystem, %function
  25              	InitializeSystem:
  26              	.LFB35:
  27              		.file 1 "BLE_functions.c"
   1:BLE_functions.c **** /*******************************************************************************
   2:BLE_functions.c **** * File Name: main.c
   3:BLE_functions.c **** *
   4:BLE_functions.c **** * Version: 1.0
   5:BLE_functions.c **** *
   6:BLE_functions.c **** * Description:
   7:BLE_functions.c **** *  This is source code for the PSoC 4 BLE dynamic broadcaster example project.
   8:BLE_functions.c **** *
   9:BLE_functions.c **** * Note:
  10:BLE_functions.c **** *
  11:BLE_functions.c **** * Owner:
  12:BLE_functions.c **** *  KRIS@CYPRESS.COM
  13:BLE_functions.c **** *
  14:BLE_functions.c **** * Related Document:
  15:BLE_functions.c **** *
  16:BLE_functions.c **** * Hardware Dependency:
  17:BLE_functions.c **** *  1. PSoC 4 BLE device
  18:BLE_functions.c **** *  2. CY8CKIT-042 BLE Pioneer Kit
  19:BLE_functions.c **** *
  20:BLE_functions.c **** * Code Tested With:
  21:BLE_functions.c **** *  1. PSoC Creator 3.1 SP1
  22:BLE_functions.c **** *  2. ARM GCC 4.8.4
  23:BLE_functions.c **** *
  24:BLE_functions.c **** ********************************************************************************
  25:BLE_functions.c **** * Copyright 2015, Cypress Semiconductor Corporation.  All rights reserved.
  26:BLE_functions.c **** * You may use this file only in accordance with the license, terms, conditions,
  27:BLE_functions.c **** * disclaimers, and limitations in the end user license agreement accompanying
  28:BLE_functions.c **** * the software package with which this file was provided.
  29:BLE_functions.c **** *******************************************************************************/
  30:BLE_functions.c **** 
ARM GAS  C:\Users\Tudor\AppData\Local\Temp\cc7wucJL.s 			page 2


  31:BLE_functions.c **** #include "BLE_functions.h"
  32:BLE_functions.c **** 
  33:BLE_functions.c **** /***************************************
  34:BLE_functions.c **** *        API Constants
  35:BLE_functions.c **** ***************************************/
  36:BLE_functions.c **** //#define LED_ON                                      (0u)
  37:BLE_functions.c **** //#define LED_OFF                                     (1u)
  38:BLE_functions.c **** 
  39:BLE_functions.c **** /***************************************
  40:BLE_functions.c **** * Extern and constants required for 
  41:BLE_functions.c **** * dynamic ADV payload update
  42:BLE_functions.c **** ***************************************/
  43:BLE_functions.c **** #define ENABLE_DYNAMIC_ADV                          (1u)
  44:BLE_functions.c **** 
  45:BLE_functions.c **** #if ENABLE_DYNAMIC_ADV
  46:BLE_functions.c ****     
  47:BLE_functions.c **** extern CYBLE_GAPP_DISC_MODE_INFO_T cyBle_discoveryModeInfo;
  48:BLE_functions.c **** extern uint8 acc_flag;
  49:BLE_functions.c ****     
  50:BLE_functions.c **** /* ADV payload dta structure */    
  51:BLE_functions.c **** #define advPayload                                  (cyBle_discoveryModeInfo.advData->advData) 
  52:BLE_functions.c ****     
  53:BLE_functions.c **** #define MANUFACTURER_SPECIFIC_DYNAMIC_DATA_INDEX    (14u) /* index of the dynamic data in the ADV p
  54:BLE_functions.c **** 
  55:BLE_functions.c **** #endif
  56:BLE_functions.c **** 
  57:BLE_functions.c **** /***************************************
  58:BLE_functions.c **** *        Function Prototypes
  59:BLE_functions.c **** ***************************************/
  60:BLE_functions.c **** void InitializeSystem(void);
  61:BLE_functions.c **** void EnterLowPowerMode(void);
  62:BLE_functions.c **** void DynamicADVPayloadUpdate(void);
  63:BLE_functions.c **** void StackEventHandler (uint32 eventCode,void *eventParam);
  64:BLE_functions.c **** 
  65:BLE_functions.c **** 
  66:BLE_functions.c ****  /*
  67:BLE_functions.c ****  *  \Brief : Main function
  68:BLE_functions.c ****  *  \Return : None
  69:BLE_functions.c ****  *  \param : None
  70:BLE_functions.c ****  */
  71:BLE_functions.c **** /*int main()
  72:BLE_functions.c **** {
  73:BLE_functions.c ****     Setup the system initially */
  74:BLE_functions.c ****     //InitializeSystem();
  75:BLE_functions.c ****     
  76:BLE_functions.c ****     /* Three simple APIs that showcases dynamic ADV payload update */ 
  77:BLE_functions.c ****     //for(;;)
  78:BLE_functions.c ****     //{
  79:BLE_functions.c ****         /* Single API call to service all the BLE stack events. Must be
  80:BLE_functions.c ****          * called at least once in a BLE connection interval */
  81:BLE_functions.c ****         //CyBle_ProcessEvents();
  82:BLE_functions.c **** 
  83:BLE_functions.c ****         /* Configure the system in lowest possible power modes during and between BLE ADV events */
  84:BLE_functions.c ****         //EnterLowPowerMode();
  85:BLE_functions.c ****         
  86:BLE_functions.c ****         /* 
  87:BLE_functions.c ****            LOW_POWER_NOTE - If you like to measure the current consumed by this project, following 
ARM GAS  C:\Users\Tudor\AppData\Local\Temp\cc7wucJL.s 			page 3


  88:BLE_functions.c ****            done to achieve lowest possible current number:
  89:BLE_functions.c ****            1. Set the "Debug Select" option under Dynamic Broadcaster.cydwr -> System -> Programmin
  90:BLE_functions.c ****            2. Comment out Advertising_LED_Write(LED_ON); line of code in StackEventHandler routine
  91:BLE_functions.c ****         */
  92:BLE_functions.c **** 
  93:BLE_functions.c **** //#if ENABLE_DYNAMIC_ADV        
  94:BLE_functions.c ****         //DynamicADVPayloadUpdate();
  95:BLE_functions.c **** //#endif
  96:BLE_functions.c **** 
  97:BLE_functions.c ****     //}
  98:BLE_functions.c **** //}
  99:BLE_functions.c **** 
 100:BLE_functions.c ****  /*
 101:BLE_functions.c ****  *  \Brief : This routine initializes all the components and firmware state
 102:BLE_functions.c ****  *  \Return : None
 103:BLE_functions.c ****  *  \param : None
 104:BLE_functions.c ****  */
 105:BLE_functions.c **** void InitializeSystem(void)
 106:BLE_functions.c **** {
  28              		.loc 1 106 0
  29              		.cfi_startproc
  30              		@ args = 0, pretend = 0, frame = 8
  31              		@ frame_needed = 1, uses_anonymous_args = 0
  32 0000 90B5     		push	{r4, r7, lr}
  33              		.cfi_def_cfa_offset 12
  34              		.cfi_offset 4, -12
  35              		.cfi_offset 7, -8
  36              		.cfi_offset 14, -4
  37 0002 83B0     		sub	sp, sp, #12
  38              		.cfi_def_cfa_offset 24
  39 0004 00AF     		add	r7, sp, #0
  40              		.cfi_def_cfa_register 7
 107:BLE_functions.c ****     CYBLE_API_RESULT_T apiResult;
 108:BLE_functions.c **** 
 109:BLE_functions.c ****     CyGlobalIntEnable;
  41              		.loc 1 109 0
  42              		.syntax divided
  43              	@ 109 "BLE_functions.c" 1
  44 0006 62B6     		CPSIE   i
  45              	@ 0 "" 2
 110:BLE_functions.c **** 
 111:BLE_functions.c ****     apiResult = CyBle_Start(StackEventHandler); /* Init the BLE stack and register an applicaiton c
  46              		.loc 1 111 0
  47              		.thumb
  48              		.syntax unified
  49 0008 BC1D     		adds	r4, r7, #6
  50 000a 0B4B     		ldr	r3, .L3
  51 000c 1800     		movs	r0, r3
  52 000e FFF7FEFF 		bl	CyBle_Start
  53 0012 0300     		movs	r3, r0
  54 0014 2380     		strh	r3, [r4]
 112:BLE_functions.c **** 
 113:BLE_functions.c ****     if(apiResult != CYBLE_ERROR_OK)
  55              		.loc 1 113 0
  56 0016 BB1D     		adds	r3, r7, #6
  57 0018 1B88     		ldrh	r3, [r3]
  58 001a 002B     		cmp	r3, #0
ARM GAS  C:\Users\Tudor\AppData\Local\Temp\cc7wucJL.s 			page 4


  59 001c 02D0     		beq	.L2
 114:BLE_functions.c ****     {
 115:BLE_functions.c ****         /* BLE stack initialization failed, check your configuration */
 116:BLE_functions.c ****         CYASSERT(0);
  60              		.loc 1 116 0 discriminator 1
  61 001e 0020     		movs	r0, #0
  62 0020 FFF7FEFF 		bl	CyHalt
  63              	.L2:
 117:BLE_functions.c ****     }
 118:BLE_functions.c ****     
 119:BLE_functions.c ****     /* Set XTAL divider to 3MHz mode */
 120:BLE_functions.c ****     CySysClkWriteEcoDiv(CY_SYS_CLK_ECO_DIV8); 
  64              		.loc 1 120 0
  65 0024 0320     		movs	r0, #3
  66 0026 FFF7FEFF 		bl	CySysClkWriteEcoDiv
 121:BLE_functions.c ****     
 122:BLE_functions.c ****     /* ILO is no longer required, shut it down */
 123:BLE_functions.c ****     CySysClkIloStop();
  67              		.loc 1 123 0
  68 002a FFF7FEFF 		bl	CySysClkIloStop
 124:BLE_functions.c **** }
  69              		.loc 1 124 0
  70 002e C046     		nop
  71 0030 BD46     		mov	sp, r7
  72 0032 03B0     		add	sp, sp, #12
  73              		@ sp needed
  74 0034 90BD     		pop	{r4, r7, pc}
  75              	.L4:
  76 0036 C046     		.align	2
  77              	.L3:
  78 0038 00000000 		.word	StackEventHandler
  79              		.cfi_endproc
  80              	.LFE35:
  81              		.size	InitializeSystem, .-InitializeSystem
  82              		.section	.text.EnterLowPowerMode,"ax",%progbits
  83              		.align	2
  84              		.global	EnterLowPowerMode
  85              		.code	16
  86              		.thumb_func
  87              		.type	EnterLowPowerMode, %function
  88              	EnterLowPowerMode:
  89              	.LFB36:
 125:BLE_functions.c **** 
 126:BLE_functions.c ****  /*
 127:BLE_functions.c ****  *  \Brief : This configures the BLESS and system in low power mode whenever possible
 128:BLE_functions.c ****  *  \Return : None
 129:BLE_functions.c ****  *  \param : None
 130:BLE_functions.c ****  */
 131:BLE_functions.c **** void EnterLowPowerMode(void)
 132:BLE_functions.c **** {
  90              		.loc 1 132 0
  91              		.cfi_startproc
  92              		@ args = 0, pretend = 0, frame = 8
  93              		@ frame_needed = 1, uses_anonymous_args = 0
  94 0000 90B5     		push	{r4, r7, lr}
  95              		.cfi_def_cfa_offset 12
  96              		.cfi_offset 4, -12
ARM GAS  C:\Users\Tudor\AppData\Local\Temp\cc7wucJL.s 			page 5


  97              		.cfi_offset 7, -8
  98              		.cfi_offset 14, -4
  99 0002 83B0     		sub	sp, sp, #12
 100              		.cfi_def_cfa_offset 24
 101 0004 00AF     		add	r7, sp, #0
 102              		.cfi_def_cfa_register 7
 133:BLE_functions.c ****     CYBLE_BLESS_STATE_T blessState;
 134:BLE_functions.c ****     uint8 intrStatus;
 135:BLE_functions.c ****     
 136:BLE_functions.c ****     /* Configure BLESS in Deep-Sleep mode */
 137:BLE_functions.c ****     CyBle_EnterLPM(CYBLE_BLESS_DEEPSLEEP);
 103              		.loc 1 137 0
 104 0006 0320     		movs	r0, #3
 105 0008 FFF7FEFF 		bl	CyBle_EnterLPM
 138:BLE_functions.c ****     
 139:BLE_functions.c ****     /* Prevent interrupts while entering system low power modes */
 140:BLE_functions.c ****     intrStatus = CyEnterCriticalSection();
 106              		.loc 1 140 0
 107 000c FC1D     		adds	r4, r7, #7
 108 000e FFF7FEFF 		bl	CyEnterCriticalSection
 109 0012 0300     		movs	r3, r0
 110 0014 2370     		strb	r3, [r4]
 141:BLE_functions.c ****     
 142:BLE_functions.c ****     /* Get the current state of BLESS block */
 143:BLE_functions.c ****     blessState = CyBle_GetBleSsState();
 111              		.loc 1 143 0
 112 0016 BC1D     		adds	r4, r7, #6
 113 0018 FFF7FEFF 		bl	CyBle_GetBleSsState
 114 001c 0300     		movs	r3, r0
 115 001e 2370     		strb	r3, [r4]
 144:BLE_functions.c ****     
 145:BLE_functions.c ****     /* If BLESS is in Deep-Sleep mode or the XTAL oscillator is turning on, 
 146:BLE_functions.c ****      * then PSoC 4 BLE can enter Deep-Sleep mode (1.3uA current consumption) */
 147:BLE_functions.c ****     if(blessState == CYBLE_BLESS_STATE_ECO_ON || 
 116              		.loc 1 147 0
 117 0020 BB1D     		adds	r3, r7, #6
 118 0022 1B78     		ldrb	r3, [r3]
 119 0024 042B     		cmp	r3, #4
 120 0026 03D0     		beq	.L6
 121              		.loc 1 147 0 is_stmt 0 discriminator 1
 122 0028 BB1D     		adds	r3, r7, #6
 123 002a 1B78     		ldrb	r3, [r3]
 124 002c 062B     		cmp	r3, #6
 125 002e 02D1     		bne	.L7
 126              	.L6:
 148:BLE_functions.c ****         blessState == CYBLE_BLESS_STATE_DEEPSLEEP)
 149:BLE_functions.c ****     {
 150:BLE_functions.c ****         CySysPmDeepSleep();
 127              		.loc 1 150 0 is_stmt 1
 128 0030 FFF7FEFF 		bl	CySysPmDeepSleep
 129 0034 0FE0     		b	.L8
 130              	.L7:
 151:BLE_functions.c ****     }
 152:BLE_functions.c ****     else if(blessState != CYBLE_BLESS_STATE_EVENT_CLOSE)
 131              		.loc 1 152 0
 132 0036 BB1D     		adds	r3, r7, #6
 133 0038 1B78     		ldrb	r3, [r3]
ARM GAS  C:\Users\Tudor\AppData\Local\Temp\cc7wucJL.s 			page 6


 134 003a 022B     		cmp	r3, #2
 135 003c 0BD0     		beq	.L8
 153:BLE_functions.c ****     {
 154:BLE_functions.c ****         /* If BLESS is active, then configure PSoC 4 BLE system in 
 155:BLE_functions.c ****          * Sleep mode (~1.6mA current consumption) */
 156:BLE_functions.c ****         CySysClkWriteHfclkDirect(CY_SYS_CLK_HFCLK_ECO);
 136              		.loc 1 156 0
 137 003e 0220     		movs	r0, #2
 138 0040 FFF7FEFF 		bl	CySysClkWriteHfclkDirect
 157:BLE_functions.c ****         CySysClkImoStop();
 139              		.loc 1 157 0
 140 0044 FFF7FEFF 		bl	CySysClkImoStop
 158:BLE_functions.c ****         CySysPmSleep();
 141              		.loc 1 158 0
 142 0048 FFF7FEFF 		bl	CySysPmSleep
 159:BLE_functions.c ****         CySysClkImoStart();
 143              		.loc 1 159 0
 144 004c FFF7FEFF 		bl	CySysClkImoStart
 160:BLE_functions.c ****         CySysClkWriteHfclkDirect(CY_SYS_CLK_HFCLK_IMO);
 145              		.loc 1 160 0
 146 0050 0020     		movs	r0, #0
 147 0052 FFF7FEFF 		bl	CySysClkWriteHfclkDirect
 148              	.L8:
 161:BLE_functions.c ****     }
 162:BLE_functions.c ****     else
 163:BLE_functions.c ****     {
 164:BLE_functions.c ****         /* Keep trying to enter either Sleep or Deep-Sleep mode */    
 165:BLE_functions.c ****     }
 166:BLE_functions.c ****     
 167:BLE_functions.c ****     CyExitCriticalSection(intrStatus);
 149              		.loc 1 167 0
 150 0056 FB1D     		adds	r3, r7, #7
 151 0058 1B78     		ldrb	r3, [r3]
 152 005a 1800     		movs	r0, r3
 153 005c FFF7FEFF 		bl	CyExitCriticalSection
 168:BLE_functions.c **** }
 154              		.loc 1 168 0
 155 0060 C046     		nop
 156 0062 BD46     		mov	sp, r7
 157 0064 03B0     		add	sp, sp, #12
 158              		@ sp needed
 159 0066 90BD     		pop	{r4, r7, pc}
 160              		.cfi_endproc
 161              	.LFE36:
 162              		.size	EnterLowPowerMode, .-EnterLowPowerMode
 163              		.section	.text.DynamicADVPayloadUpdate,"ax",%progbits
 164              		.align	2
 165              		.global	DynamicADVPayloadUpdate
 166              		.code	16
 167              		.thumb_func
 168              		.type	DynamicADVPayloadUpdate, %function
 169              	DynamicADVPayloadUpdate:
 170              	.LFB37:
 169:BLE_functions.c ****    
 170:BLE_functions.c ****  /*
 171:BLE_functions.c ****  *  \Brief : This routine dynamically updates the BLE advertisement packet
 172:BLE_functions.c ****  *  \Return : None
ARM GAS  C:\Users\Tudor\AppData\Local\Temp\cc7wucJL.s 			page 7


 173:BLE_functions.c ****  *  \param : None
 174:BLE_functions.c ****  */
 175:BLE_functions.c **** void DynamicADVPayloadUpdate(void)
 176:BLE_functions.c **** {
 171              		.loc 1 176 0
 172              		.cfi_startproc
 173              		@ args = 0, pretend = 0, frame = 0
 174              		@ frame_needed = 1, uses_anonymous_args = 0
 175 0000 80B5     		push	{r7, lr}
 176              		.cfi_def_cfa_offset 8
 177              		.cfi_offset 7, -8
 178              		.cfi_offset 14, -4
 179 0002 00AF     		add	r7, sp, #0
 180              		.cfi_def_cfa_register 7
 177:BLE_functions.c ****     if(CyBle_GetBleSsState() == CYBLE_BLESS_STATE_EVENT_CLOSE)
 181              		.loc 1 177 0
 182 0004 FFF7FEFF 		bl	CyBle_GetBleSsState
 183 0008 0300     		movs	r3, r0
 184 000a 022B     		cmp	r3, #2
 185 000c 0CD1     		bne	.L11
 178:BLE_functions.c ****     {
 179:BLE_functions.c **** 
 180:BLE_functions.c ****         /* Once the system enters Sleep/Deepsleep mode during advertisement, the source of wake-up 
 181:BLE_functions.c ****          * advertisement interval which has a wakeup interval of 1 advertisement (ADV) interval (10
 182:BLE_functions.c ****          */
 183:BLE_functions.c ****         
 184:BLE_functions.c ****         
 185:BLE_functions.c ****         /* Dynamic payload will be continuously updated */
 186:BLE_functions.c ****         advPayload[MANUFACTURER_SPECIFIC_DYNAMIC_DATA_INDEX] = acc_flag;
 186              		.loc 1 186 0
 187 000e 084B     		ldr	r3, .L12
 188 0010 9B68     		ldr	r3, [r3, #8]
 189 0012 084A     		ldr	r2, .L12+4
 190 0014 1278     		ldrb	r2, [r2]
 191 0016 9A73     		strb	r2, [r3, #14]
 187:BLE_functions.c **** 
 188:BLE_functions.c ****         
 189:BLE_functions.c ****         CyBle_GapUpdateAdvData(cyBle_discoveryModeInfo.advData, cyBle_discoveryModeInfo.scanRspData
 192              		.loc 1 189 0
 193 0018 054B     		ldr	r3, .L12
 194 001a 9A68     		ldr	r2, [r3, #8]
 195 001c 044B     		ldr	r3, .L12
 196 001e DB68     		ldr	r3, [r3, #12]
 197 0020 1900     		movs	r1, r3
 198 0022 1000     		movs	r0, r2
 199 0024 FFF7FEFF 		bl	CyBle_GapUpdateAdvData
 200              	.L11:
 190:BLE_functions.c ****         
 191:BLE_functions.c ****     }
 192:BLE_functions.c **** }
 201              		.loc 1 192 0
 202 0028 C046     		nop
 203 002a BD46     		mov	sp, r7
 204              		@ sp needed
 205 002c 80BD     		pop	{r7, pc}
 206              	.L13:
 207 002e C046     		.align	2
ARM GAS  C:\Users\Tudor\AppData\Local\Temp\cc7wucJL.s 			page 8


 208              	.L12:
 209 0030 00000000 		.word	cyBle_discoveryModeInfo
 210 0034 00000000 		.word	acc_flag
 211              		.cfi_endproc
 212              	.LFE37:
 213              		.size	DynamicADVPayloadUpdate, .-DynamicADVPayloadUpdate
 214              		.section	.text.StackEventHandler,"ax",%progbits
 215              		.align	2
 216              		.global	StackEventHandler
 217              		.code	16
 218              		.thumb_func
 219              		.type	StackEventHandler, %function
 220              	StackEventHandler:
 221              	.LFB38:
 193:BLE_functions.c **** 
 194:BLE_functions.c ****  /*
 195:BLE_functions.c ****  *  \Brief : This is an event callback function to receive events from the BLE Component
 196:BLE_functions.c ****  *  \Return : None
 197:BLE_functions.c ****  *  \param eventCode : Event from the CYBLE component
 198:BLE_functions.c ****  *  \param eventParam: A structure instance for corresponding event type. The
 199:BLE_functions.c ****  *                     list of event structure is described in the component
 200:BLE_functions.c ****  *                     datasheet
 201:BLE_functions.c ****  */ 
 202:BLE_functions.c **** void StackEventHandler(uint32 event, void *eventParam)
 203:BLE_functions.c **** {
 222              		.loc 1 203 0
 223              		.cfi_startproc
 224              		@ args = 0, pretend = 0, frame = 8
 225              		@ frame_needed = 1, uses_anonymous_args = 0
 226 0000 80B5     		push	{r7, lr}
 227              		.cfi_def_cfa_offset 8
 228              		.cfi_offset 7, -8
 229              		.cfi_offset 14, -4
 230 0002 82B0     		sub	sp, sp, #8
 231              		.cfi_def_cfa_offset 16
 232 0004 00AF     		add	r7, sp, #0
 233              		.cfi_def_cfa_register 7
 234 0006 7860     		str	r0, [r7, #4]
 235 0008 3960     		str	r1, [r7]
 204:BLE_functions.c ****     switch(event)
 236              		.loc 1 204 0
 237 000a 7B68     		ldr	r3, [r7, #4]
 238 000c 262B     		cmp	r3, #38
 239 000e 08D0     		beq	.L16
 240 0010 282B     		cmp	r3, #40
 241 0012 02D0     		beq	.L17
 242 0014 012B     		cmp	r3, #1
 243 0016 00D0     		beq	.L17
 205:BLE_functions.c ****     {
 206:BLE_functions.c ****         /* Mandatory events to be handled by Find Me Target design */
 207:BLE_functions.c ****         case CYBLE_EVT_STACK_ON:
 208:BLE_functions.c ****         case CYBLE_EVT_GAP_DEVICE_DISCONNECTED:
 209:BLE_functions.c ****             /* Start BLE advertisement for 30 seconds and update link
 210:BLE_functions.c ****              * status on LEDs */
 211:BLE_functions.c ****             CyBle_GappStartAdvertisement(CYBLE_ADVERTISING_FAST);
 212:BLE_functions.c ****             //Advertising_LED_Write(LED_ON);
 213:BLE_functions.c ****           break;
ARM GAS  C:\Users\Tudor\AppData\Local\Temp\cc7wucJL.s 			page 9


 214:BLE_functions.c **** 
 215:BLE_functions.c ****         case CYBLE_EVT_GAPP_ADVERTISEMENT_START_STOP:
 216:BLE_functions.c ****             if(CyBle_GetState() == CYBLE_STATE_DISCONNECTED)
 217:BLE_functions.c ****             {
 218:BLE_functions.c ****                 /* Advertisement event timed out, go to low power
 219:BLE_functions.c ****                  * mode (Hibernate mode) and wait for an external
 220:BLE_functions.c ****                  * user event to wake up the device again */
 221:BLE_functions.c ****                 //Advertising_LED_Write(LED_OFF);
 222:BLE_functions.c ****                 //Hibernate_LED_Write(LED_ON);
 223:BLE_functions.c ****                 //PIN1_ClearInterrupt();
 224:BLE_functions.c ****                 //PIN1_ISR_ClearPending();
 225:BLE_functions.c ****                 //PIN1_ISR_Start();
 226:BLE_functions.c ****                 CySysPmHibernate();
 227:BLE_functions.c ****             }
 228:BLE_functions.c ****             break;
 229:BLE_functions.c **** 
 230:BLE_functions.c ****         default:
 231:BLE_functions.c ****         break;
 244              		.loc 1 231 0
 245 0018 0AE0     		b	.L18
 246              	.L17:
 211:BLE_functions.c ****             //Advertising_LED_Write(LED_ON);
 247              		.loc 1 211 0
 248 001a 0020     		movs	r0, #0
 249 001c FFF7FEFF 		bl	CyBle_GappStartAdvertisement
 213:BLE_functions.c **** 
 250              		.loc 1 213 0
 251 0020 06E0     		b	.L18
 252              	.L16:
 216:BLE_functions.c ****             {
 253              		.loc 1 216 0
 254 0022 054B     		ldr	r3, .L21
 255 0024 1B78     		ldrb	r3, [r3]
 256 0026 042B     		cmp	r3, #4
 257 0028 01D1     		bne	.L20
 226:BLE_functions.c ****             }
 258              		.loc 1 226 0
 259 002a FFF7FEFF 		bl	CySysPmHibernate
 260              	.L20:
 228:BLE_functions.c **** 
 261              		.loc 1 228 0
 262 002e C046     		nop
 263              	.L18:
 232:BLE_functions.c ****     }
 233:BLE_functions.c **** }
 264              		.loc 1 233 0
 265 0030 C046     		nop
 266 0032 BD46     		mov	sp, r7
 267 0034 02B0     		add	sp, sp, #8
 268              		@ sp needed
 269 0036 80BD     		pop	{r7, pc}
 270              	.L22:
 271              		.align	2
 272              	.L21:
 273 0038 00000000 		.word	cyBle_state
 274              		.cfi_endproc
 275              	.LFE38:
ARM GAS  C:\Users\Tudor\AppData\Local\Temp\cc7wucJL.s 			page 10


 276              		.size	StackEventHandler, .-StackEventHandler
 277              		.text
 278              	.Letext0:
 279              		.file 2 "Generated_Source\\PSoC4/cytypes.h"
 280              		.file 3 "Generated_Source\\PSoC4/BLE_Stack.h"
 281              		.file 4 "Generated_Source\\PSoC4/BLE_StackGap.h"
 282              		.file 5 "Generated_Source\\PSoC4/BLE_eventHandler.h"