ARM GAS  C:\Users\Tudor\AppData\Local\Temp\cc9veP4D.s 			page 1


   1              		.syntax unified
   2              		.cpu cortex-m0
   3              		.fpu softvfp
   4              		.eabi_attribute 20, 1
   5              		.eabi_attribute 21, 1
   6              		.eabi_attribute 23, 3
   7              		.eabi_attribute 24, 1
   8              		.eabi_attribute 25, 1
   9              		.eabi_attribute 26, 1
  10              		.eabi_attribute 30, 6
  11              		.eabi_attribute 34, 0
  12              		.eabi_attribute 18, 4
  13              		.thumb
  14              		.syntax unified
  15              		.file	"bma2x2_support.c"
  16              		.text
  17              	.Ltext0:
  18              		.cfi_sections	.debug_frame
  19              		.section	.text.bma2x2_shock_setup,"ax",%progbits
  20              		.align	2
  21              		.global	bma2x2_shock_setup
  22              		.code	16
  23              		.thumb_func
  24              		.type	bma2x2_shock_setup, %function
  25              	bma2x2_shock_setup:
  26              	.LFB35:
  27              		.file 1 "bma2x2_support.c"
   1:bma2x2_support.c **** /*
   2:bma2x2_support.c **** ****************************************************************************
   3:bma2x2_support.c **** * Copyright (C) 2015 - 2016 Bosch Sensortec GmbH
   4:bma2x2_support.c **** *
   5:bma2x2_support.c **** * bma2x2_support.c
   6:bma2x2_support.c **** * Date: 2016/03/09
   7:bma2x2_support.c **** * Revision: 1.0.4 $
   8:bma2x2_support.c **** *
   9:bma2x2_support.c **** * Usage: Sensor Driver support file for  BMA2x2 sensor
  10:bma2x2_support.c **** *
  11:bma2x2_support.c **** ****************************************************************************
  12:bma2x2_support.c **** * Disclaimer
  13:bma2x2_support.c **** *
  14:bma2x2_support.c **** * Common:
  15:bma2x2_support.c **** * Bosch Sensortec products are developed for the consumer goods industry.
  16:bma2x2_support.c **** * They may only be used within the parameters of the respective valid
  17:bma2x2_support.c **** * product data sheet.  Bosch Sensortec products are provided with the
  18:bma2x2_support.c **** * express understanding that there is no warranty of fitness for a
  19:bma2x2_support.c **** * particular purpose.They are not fit for use in life-sustaining,
  20:bma2x2_support.c **** * safety or security sensitive systems or any system or device
  21:bma2x2_support.c **** * that may lead to bodily harm or property damage if the system
  22:bma2x2_support.c **** * or device malfunctions. In addition,Bosch Sensortec products are
  23:bma2x2_support.c **** * not fit for use in products which interact with motor vehicle systems.
  24:bma2x2_support.c **** * The resale and or use of products are at the purchasers own risk and
  25:bma2x2_support.c **** * his own responsibility. The examination of fitness for the intended use
  26:bma2x2_support.c **** * is the sole responsibility of the Purchaser.
  27:bma2x2_support.c **** *
  28:bma2x2_support.c **** * The purchaser shall indemnify Bosch Sensortec from all third party
  29:bma2x2_support.c **** * claims, including any claims for incidental, or consequential damages,
  30:bma2x2_support.c **** * arising from any product use not covered by the parameters of
ARM GAS  C:\Users\Tudor\AppData\Local\Temp\cc9veP4D.s 			page 2


  31:bma2x2_support.c **** * the respective valid product data sheet or not approved by
  32:bma2x2_support.c **** * Bosch Sensortec and reimburse Bosch Sensortec for all costs in
  33:bma2x2_support.c **** * connection with such claims.
  34:bma2x2_support.c **** *
  35:bma2x2_support.c **** * The purchaser must monitor the market for the purchased products,
  36:bma2x2_support.c **** * particularly with regard to product safety and inform Bosch Sensortec
  37:bma2x2_support.c **** * without delay of all security relevant incidents.
  38:bma2x2_support.c **** *
  39:bma2x2_support.c **** * Engineering Samples are marked with an asterisk (*) or (e).
  40:bma2x2_support.c **** * Samples may vary from the valid technical specifications of the product
  41:bma2x2_support.c **** * series. They are therefore not intended or fit for resale to third
  42:bma2x2_support.c **** * parties or for use in end products. Their sole purpose is internal
  43:bma2x2_support.c **** * client testing. The testing of an engineering sample may in no way
  44:bma2x2_support.c **** * replace the testing of a product series. Bosch Sensortec assumes
  45:bma2x2_support.c **** * no liability for the use of engineering samples.
  46:bma2x2_support.c **** * By accepting the engineering samples, the Purchaser agrees to indemnify
  47:bma2x2_support.c **** * Bosch Sensortec from all claims arising from the use of engineering
  48:bma2x2_support.c **** * samples.
  49:bma2x2_support.c **** *
  50:bma2x2_support.c **** * Special:
  51:bma2x2_support.c **** * This software module (hereinafter called "Software") and any information
  52:bma2x2_support.c **** * on application-sheets (hereinafter called "Information") is provided
  53:bma2x2_support.c **** * free of charge for the sole purpose to support your application work.
  54:bma2x2_support.c **** * The Software and Information is subject to the following
  55:bma2x2_support.c **** * terms and conditions:
  56:bma2x2_support.c **** *
  57:bma2x2_support.c **** * The Software is specifically designed for the exclusive use for
  58:bma2x2_support.c **** * Bosch Sensortec products by personnel who have special experience
  59:bma2x2_support.c **** * and training. Do not use this Software if you do not have the
  60:bma2x2_support.c **** * proper experience or training.
  61:bma2x2_support.c **** *
  62:bma2x2_support.c **** * This Software package is provided `` as is `` and without any expressed
  63:bma2x2_support.c **** * or implied warranties,including without limitation, the implied warranties
  64:bma2x2_support.c **** * of merchantability and fitness for a particular purpose.
  65:bma2x2_support.c **** *
  66:bma2x2_support.c **** * Bosch Sensortec and their representatives and agents deny any liability
  67:bma2x2_support.c **** * for the functional impairment
  68:bma2x2_support.c **** * of this Software in terms of fitness, performance and safety.
  69:bma2x2_support.c **** * Bosch Sensortec and their representatives and agents shall not be liable
  70:bma2x2_support.c **** * for any direct or indirect damages or injury, except as
  71:bma2x2_support.c **** * otherwise stipulated in mandatory applicable law.
  72:bma2x2_support.c **** *
  73:bma2x2_support.c **** * The Information provided is believed to be accurate and reliable.
  74:bma2x2_support.c **** * Bosch Sensortec assumes no responsibility for the consequences of use
  75:bma2x2_support.c **** * of such Information nor for any infringement of patents or
  76:bma2x2_support.c **** * other rights of third parties which may result from its use.
  77:bma2x2_support.c **** * No license is granted by implication or otherwise under any patent or
  78:bma2x2_support.c **** * patent rights of Bosch. Specifications mentioned in the Information are
  79:bma2x2_support.c **** * subject to change without notice.
  80:bma2x2_support.c **** **************************************************************************/
  81:bma2x2_support.c **** /*---------------------------------------------------------------------------*/
  82:bma2x2_support.c **** /* Includes*/
  83:bma2x2_support.c **** /*---------------------------------------------------------------------------*/
  84:bma2x2_support.c **** //#include "bma2x2.h"
  85:bma2x2_support.c **** #include "bma2x2_support.h"
  86:bma2x2_support.c **** 
  87:bma2x2_support.c **** 
ARM GAS  C:\Users\Tudor\AppData\Local\Temp\cc9veP4D.s 			page 3


  88:bma2x2_support.c ****  s32 bma2x2_shock_setup(struct bma2x2_t *bma2x2)
  89:bma2x2_support.c **** {
  28              		.loc 1 89 0
  29              		.cfi_startproc
  30              		@ args = 0, pretend = 0, frame = 16
  31              		@ frame_needed = 1, uses_anonymous_args = 0
  32 0000 90B5     		push	{r4, r7, lr}
  33              		.cfi_def_cfa_offset 12
  34              		.cfi_offset 4, -12
  35              		.cfi_offset 7, -8
  36              		.cfi_offset 14, -4
  37 0002 85B0     		sub	sp, sp, #20
  38              		.cfi_def_cfa_offset 32
  39 0004 00AF     		add	r7, sp, #0
  40              		.cfi_def_cfa_register 7
  41 0006 7860     		str	r0, [r7, #4]
  90:bma2x2_support.c ****     /*Setting the deafault value of the bandwidth*/
  91:bma2x2_support.c ****     u8 bw_value_u8 = 0x08;
  42              		.loc 1 91 0
  43 0008 0E23     		movs	r3, #14
  44 000a FB18     		adds	r3, r7, r3
  45 000c 0822     		movs	r2, #8
  46 000e 1A70     		strb	r2, [r3]
  92:bma2x2_support.c ****     
  93:bma2x2_support.c ****     /**
  94:bma2x2_support.c ****     Initializing the com_rslt that is going to be returned as an ERROR
  95:bma2x2_support.c ****     It's going to change inside this function to something else
  96:bma2x2_support.c ****     Otherwise it will return the ERROR, meaning that something went wrong during the setup of the a
  97:bma2x2_support.c ****     */
  98:bma2x2_support.c ****     BMA2x2_RETURN_FUNCTION_TYPE com_rslt = ERROR;
  47              		.loc 1 98 0
  48 0010 0F23     		movs	r3, #15
  49 0012 FB18     		adds	r3, r7, r3
  50 0014 FF22     		movs	r2, #255
  51 0016 1A70     		strb	r2, [r3]
  99:bma2x2_support.c ****     
 100:bma2x2_support.c ****     /*Calling the routine function to check if the I2C works correctly and to enable it in the mean
 101:bma2x2_support.c ****     com_rslt = I2C_routine(bma2x2);
  52              		.loc 1 101 0
  53 0018 0F23     		movs	r3, #15
  54 001a FC18     		adds	r4, r7, r3
  55 001c 7B68     		ldr	r3, [r7, #4]
  56 001e 1800     		movs	r0, r3
  57 0020 FFF7FEFF 		bl	I2C_routine
  58 0024 0300     		movs	r3, r0
  59 0026 2370     		strb	r3, [r4]
 102:bma2x2_support.c ****     
 103:bma2x2_support.c ****     /*Executing a soft reset before initializing the accelerometer*/
 104:bma2x2_support.c ****     u8 soft_reset = 0xB6;
  60              		.loc 1 104 0
  61 0028 0D23     		movs	r3, #13
  62 002a FB18     		adds	r3, r7, r3
  63 002c B622     		movs	r2, #182
  64 002e 1A70     		strb	r2, [r3]
 105:bma2x2_support.c ****     bma2x2_write_reg(0x14,&soft_reset,1);
  65              		.loc 1 105 0
  66 0030 0D23     		movs	r3, #13
ARM GAS  C:\Users\Tudor\AppData\Local\Temp\cc9veP4D.s 			page 4


  67 0032 FB18     		adds	r3, r7, r3
  68 0034 0122     		movs	r2, #1
  69 0036 1900     		movs	r1, r3
  70 0038 1420     		movs	r0, #20
  71 003a FFF7FEFF 		bl	bma2x2_write_reg
 106:bma2x2_support.c ****     
 107:bma2x2_support.c ****     /*Initializing the accelerometer and checking if it works accordingly*/
 108:bma2x2_support.c ****     com_rslt = bma2x2_init(bma2x2);
  72              		.loc 1 108 0
  73 003e 0F23     		movs	r3, #15
  74 0040 FC18     		adds	r4, r7, r3
  75 0042 7B68     		ldr	r3, [r7, #4]
  76 0044 1800     		movs	r0, r3
  77 0046 FFF7FEFF 		bl	bma2x2_init
  78 004a 0300     		movs	r3, r0
  79 004c 2370     		strb	r3, [r4]
 109:bma2x2_support.c ****     
 110:bma2x2_support.c ****     /*Declaring and initializing the variables for the registers of the accelerometer*/
 111:bma2x2_support.c ****     u8 high_g = 0b00000010;
  80              		.loc 1 111 0
  81 004e 0C23     		movs	r3, #12
  82 0050 FB18     		adds	r3, r7, r3
  83 0052 0222     		movs	r2, #2
  84 0054 1A70     		strb	r2, [r3]
 112:bma2x2_support.c ****     u8 acc_xyz = 0b00000111;
  85              		.loc 1 112 0
  86 0056 0B23     		movs	r3, #11
  87 0058 FB18     		adds	r3, r7, r3
  88 005a 0722     		movs	r2, #7
  89 005c 1A70     		strb	r2, [r3]
 113:bma2x2_support.c ****     u8 th = 0b11000000;
  90              		.loc 1 113 0
  91 005e 0A23     		movs	r3, #10
  92 0060 FB18     		adds	r3, r7, r3
  93 0062 C022     		movs	r2, #192
  94 0064 1A70     		strb	r2, [r3]
 114:bma2x2_support.c ****     
 115:bma2x2_support.c ****     /*If the is no ERROR then we can set the accelerometer to it's normal mode and set the default 
 116:bma2x2_support.c ****     if (!com_rslt)
  95              		.loc 1 116 0
  96 0066 0F23     		movs	r3, #15
  97 0068 FB18     		adds	r3, r7, r3
  98 006a 1B78     		ldrb	r3, [r3]
  99 006c 5BB2     		sxtb	r3, r3
 100 006e 002B     		cmp	r3, #0
 101 0070 0CD1     		bne	.L2
 117:bma2x2_support.c ****     {
 118:bma2x2_support.c ****         com_rslt+=bma2x2_set_power_mode(BMA2x2_MODE_NORMAL);
 102              		.loc 1 118 0
 103 0072 0020     		movs	r0, #0
 104 0074 FFF7FEFF 		bl	bma2x2_set_power_mode
 105 0078 0300     		movs	r3, r0
 106 007a DAB2     		uxtb	r2, r3
 107 007c 0F23     		movs	r3, #15
 108 007e FB18     		adds	r3, r7, r3
 109 0080 1B78     		ldrb	r3, [r3]
 110 0082 D318     		adds	r3, r2, r3
ARM GAS  C:\Users\Tudor\AppData\Local\Temp\cc9veP4D.s 			page 5


 111 0084 DAB2     		uxtb	r2, r3
 112 0086 0F23     		movs	r3, #15
 113 0088 FB18     		adds	r3, r7, r3
 114 008a 1A70     		strb	r2, [r3]
 115              	.L2:
 119:bma2x2_support.c ****     }
 120:bma2x2_support.c ****     if (!com_rslt)
 116              		.loc 1 120 0
 117 008c 0F23     		movs	r3, #15
 118 008e FB18     		adds	r3, r7, r3
 119 0090 1B78     		ldrb	r3, [r3]
 120 0092 5BB2     		sxtb	r3, r3
 121 0094 002B     		cmp	r3, #0
 122 0096 0FD1     		bne	.L3
 121:bma2x2_support.c ****     {
 122:bma2x2_support.c ****         com_rslt+=bma2x2_set_bw(bw_value_u8);
 123              		.loc 1 122 0
 124 0098 0E23     		movs	r3, #14
 125 009a FB18     		adds	r3, r7, r3
 126 009c 1B78     		ldrb	r3, [r3]
 127 009e 1800     		movs	r0, r3
 128 00a0 FFF7FEFF 		bl	bma2x2_set_bw
 129 00a4 0300     		movs	r3, r0
 130 00a6 DAB2     		uxtb	r2, r3
 131 00a8 0F23     		movs	r3, #15
 132 00aa FB18     		adds	r3, r7, r3
 133 00ac 1B78     		ldrb	r3, [r3]
 134 00ae D318     		adds	r3, r2, r3
 135 00b0 DAB2     		uxtb	r2, r3
 136 00b2 0F23     		movs	r3, #15
 137 00b4 FB18     		adds	r3, r7, r3
 138 00b6 1A70     		strb	r2, [r3]
 139              	.L3:
 123:bma2x2_support.c ****     }
 124:bma2x2_support.c ****     
 125:bma2x2_support.c ****     /*If there is no ERROR we are setting the high g interrupt, the threshold value and specifying 
 126:bma2x2_support.c ****     if (!com_rslt)
 140              		.loc 1 126 0
 141 00b8 0F23     		movs	r3, #15
 142 00ba FB18     		adds	r3, r7, r3
 143 00bc 1B78     		ldrb	r3, [r3]
 144 00be 5BB2     		sxtb	r3, r3
 145 00c0 002B     		cmp	r3, #0
 146 00c2 1AD1     		bne	.L4
 127:bma2x2_support.c ****     {
 128:bma2x2_support.c ****         bma2x2_write_reg(0x19,&high_g,1);
 147              		.loc 1 128 0
 148 00c4 0C23     		movs	r3, #12
 149 00c6 FB18     		adds	r3, r7, r3
 150 00c8 0122     		movs	r2, #1
 151 00ca 1900     		movs	r1, r3
 152 00cc 1920     		movs	r0, #25
 153 00ce FFF7FEFF 		bl	bma2x2_write_reg
 129:bma2x2_support.c ****         bma2x2_write_reg(0x26,&th,1);
 154              		.loc 1 129 0
 155 00d2 0A23     		movs	r3, #10
 156 00d4 FB18     		adds	r3, r7, r3
ARM GAS  C:\Users\Tudor\AppData\Local\Temp\cc9veP4D.s 			page 6


 157 00d6 0122     		movs	r2, #1
 158 00d8 1900     		movs	r1, r3
 159 00da 2620     		movs	r0, #38
 160 00dc FFF7FEFF 		bl	bma2x2_write_reg
 130:bma2x2_support.c ****         CyDelay(25);
 161              		.loc 1 130 0
 162 00e0 1920     		movs	r0, #25
 163 00e2 FFF7FEFF 		bl	CyDelay
 131:bma2x2_support.c ****         bma2x2_write_reg(0x17,&acc_xyz,1);
 164              		.loc 1 131 0
 165 00e6 0B23     		movs	r3, #11
 166 00e8 FB18     		adds	r3, r7, r3
 167 00ea 0122     		movs	r2, #1
 168 00ec 1900     		movs	r1, r3
 169 00ee 1720     		movs	r0, #23
 170 00f0 FFF7FEFF 		bl	bma2x2_write_reg
 132:bma2x2_support.c ****         CyDelay(25);
 171              		.loc 1 132 0
 172 00f4 1920     		movs	r0, #25
 173 00f6 FFF7FEFF 		bl	CyDelay
 174              	.L4:
 133:bma2x2_support.c ****     }
 134:bma2x2_support.c ****     return com_rslt;
 175              		.loc 1 134 0
 176 00fa 0F23     		movs	r3, #15
 177 00fc FB18     		adds	r3, r7, r3
 178 00fe 1B78     		ldrb	r3, [r3]
 179 0100 5BB2     		sxtb	r3, r3
 135:bma2x2_support.c **** }
 180              		.loc 1 135 0
 181 0102 1800     		movs	r0, r3
 182 0104 BD46     		mov	sp, r7
 183 0106 05B0     		add	sp, sp, #20
 184              		@ sp needed
 185 0108 90BD     		pop	{r4, r7, pc}
 186              		.cfi_endproc
 187              	.LFE35:
 188              		.size	bma2x2_shock_setup, .-bma2x2_shock_setup
 189 010a C046     		.section	.text.bma2x2_data_readout_template,"ax",%progbits
 190              		.align	2
 191              		.global	bma2x2_data_readout_template
 192              		.code	16
 193              		.thumb_func
 194              		.type	bma2x2_data_readout_template, %function
 195              	bma2x2_data_readout_template:
 196              	.LFB36:
 136:bma2x2_support.c **** 
 137:bma2x2_support.c **** /*----------------------------------------------------------------------------*
 138:bma2x2_support.c **** *	The following functions are used for reading and writing of
 139:bma2x2_support.c **** *	sensor data using I2C or SPI communication
 140:bma2x2_support.c **** *----------------------------------------------------------------------------*/
 141:bma2x2_support.c ****  /*	\Brief: The function is used as I2C bus read
 142:bma2x2_support.c ****  *	\Return : Status of the I2C read
 143:bma2x2_support.c ****  *	\param dev_addr : The device address of the sensor
 144:bma2x2_support.c ****  *	\param reg_addr : Address of the first register,
 145:bma2x2_support.c ****  *               will data is going to be read
 146:bma2x2_support.c ****  *	\param reg_data : This data read from the sensor,
ARM GAS  C:\Users\Tudor\AppData\Local\Temp\cc9veP4D.s 			page 7


 147:bma2x2_support.c ****  *               which is hold in an array
 148:bma2x2_support.c ****  *	\param cnt : The no of byte of data to be read
 149:bma2x2_support.c ****  */
 150:bma2x2_support.c **** s8 BMA2x2_I2C_bus_read(u8 dev_id, u8 reg_addr, u8 *reg_data, u8 len);
 151:bma2x2_support.c ****  /*	\Brief: The function is used as I2C bus write
 152:bma2x2_support.c ****  *	\Return : Status of the I2C write
 153:bma2x2_support.c ****  *	\param dev_addr : The device address of the sensor
 154:bma2x2_support.c ****  *	\param reg_addr : Address of the first register,
 155:bma2x2_support.c ****  *              will data is going to be written
 156:bma2x2_support.c ****  *	\param reg_data : It is a value hold in the array,
 157:bma2x2_support.c ****  *		will be used for write the value into the register
 158:bma2x2_support.c ****  *	\param cnt : The no of byte of data to be write
 159:bma2x2_support.c ****  */
 160:bma2x2_support.c **** s8 BMA2x2_I2C_bus_write(u8 dev_id, u8 reg_addr, u8 *reg_data, u8 len);
 161:bma2x2_support.c **** 
 162:bma2x2_support.c ****   /*	Based on the user need configure I2C or SPI interface.
 163:bma2x2_support.c ****   *	It is example code to explain how to use the bma2x2 API*/
 164:bma2x2_support.c **** s8 I2C_routine(struct bma2x2_t *bma2x2);
 165:bma2x2_support.c **** 
 166:bma2x2_support.c **** 
 167:bma2x2_support.c **** /********************End of I2C/SPI function declarations*******************/
 168:bma2x2_support.c **** /*	Brief : The delay routine
 169:bma2x2_support.c ****  *	\param : delay in ms
 170:bma2x2_support.c ****  */
 171:bma2x2_support.c **** void BMA2x2_delay_msek(u32 msek);
 172:bma2x2_support.c **** /*!
 173:bma2x2_support.c ****  *	@brief This function is an example for delay
 174:bma2x2_support.c ****  *	@param : None
 175:bma2x2_support.c ****  *	@return : communication result
 176:bma2x2_support.c ****  */
 177:bma2x2_support.c **** s32 bma2x2_data_readout_template(struct bma2x2_t *bma2x2);
 178:bma2x2_support.c **** /*----------------------------------------------------------------------------*
 179:bma2x2_support.c **** *  struct bma2x2_t parameters can be accessed by using bma2x2
 180:bma2x2_support.c ****  *	bma2x2_t having the following parameters
 181:bma2x2_support.c ****  *	Bus write function pointer: BMA2x2_WR_FUNC_PTR
 182:bma2x2_support.c ****  *	Bus read function pointer: BMA2x2_RD_FUNC_PTR
 183:bma2x2_support.c ****  *	Burst read function pointer: BMA2x2_BRD_FUNC_PTR
 184:bma2x2_support.c ****  *	Delay function pointer: delay_msec
 185:bma2x2_support.c ****  *	I2C address: dev_addr
 186:bma2x2_support.c ****  *	Chip id of the sensor: chip_id
 187:bma2x2_support.c ****  *---------------------------------------------------------------------------*/
 188:bma2x2_support.c **** 
 189:bma2x2_support.c **** /*----------------------------------------------------------------------------*
 190:bma2x2_support.c **** *  V_BMA2x2RESOLUTION_u8R used for selecting the accelerometer resolution
 191:bma2x2_support.c ****  *	12 bit
 192:bma2x2_support.c ****  *	14 bit
 193:bma2x2_support.c ****  *	10 bit
 194:bma2x2_support.c **** *----------------------------------------------------------------------------*/
 195:bma2x2_support.c **** extern u8 V_BMA2x2RESOLUTION_u8R;
 196:bma2x2_support.c **** /* This function is an example for reading sensor data
 197:bma2x2_support.c ****  *	\param: None
 198:bma2x2_support.c ****  *	\return: communication result
 199:bma2x2_support.c ****  */
 200:bma2x2_support.c **** s32 bma2x2_data_readout_template(struct bma2x2_t *bma2x2)
 201:bma2x2_support.c **** {
 197              		.loc 1 201 0
 198              		.cfi_startproc
ARM GAS  C:\Users\Tudor\AppData\Local\Temp\cc9veP4D.s 			page 8


 199              		@ args = 0, pretend = 0, frame = 40
 200              		@ frame_needed = 1, uses_anonymous_args = 0
 201 0000 80B5     		push	{r7, lr}
 202              		.cfi_def_cfa_offset 8
 203              		.cfi_offset 7, -8
 204              		.cfi_offset 14, -4
 205 0002 8AB0     		sub	sp, sp, #40
 206              		.cfi_def_cfa_offset 48
 207 0004 00AF     		add	r7, sp, #0
 208              		.cfi_def_cfa_register 7
 209 0006 7860     		str	r0, [r7, #4]
 202:bma2x2_support.c **** 	/*Local variables for reading accel x, y and z data*/
 203:bma2x2_support.c **** 	s16	accel_x_s16, accel_y_s16, accel_z_s16 = BMA2x2_INIT_VALUE;
 210              		.loc 1 203 0
 211 0008 1A23     		movs	r3, #26
 212 000a FB18     		adds	r3, r7, r3
 213 000c 0022     		movs	r2, #0
 214 000e 1A80     		strh	r2, [r3]
 204:bma2x2_support.c **** 
 205:bma2x2_support.c **** 	/* bma2x2acc_data structure used to read accel xyz data*/
 206:bma2x2_support.c **** 	struct bma2x2_accel_data sample_xyz;
 207:bma2x2_support.c **** 	/* bma2x2acc_data_temp structure used to read
 208:bma2x2_support.c **** 		accel xyz and temperature data*/
 209:bma2x2_support.c **** 	struct bma2x2_accel_data_temp sample_xyzt;
 210:bma2x2_support.c **** 	/* Local variable used to assign the bandwidth value*/
 211:bma2x2_support.c **** 	u8 bw_value_u8 = BMA2x2_INIT_VALUE;
 215              		.loc 1 211 0
 216 0010 2723     		movs	r3, #39
 217 0012 FB18     		adds	r3, r7, r3
 218 0014 0022     		movs	r2, #0
 219 0016 1A70     		strb	r2, [r3]
 212:bma2x2_support.c **** 	/* Local variable used to set the bandwidth value*/
 213:bma2x2_support.c **** 	u8 banwid = BMA2x2_INIT_VALUE;
 220              		.loc 1 213 0
 221 0018 0B23     		movs	r3, #11
 222 001a FB18     		adds	r3, r7, r3
 223 001c 0022     		movs	r2, #0
 224 001e 1A70     		strb	r2, [r3]
 214:bma2x2_support.c **** 	/* status of communication*/
 215:bma2x2_support.c **** 	s32 com_rslt = ERROR;
 225              		.loc 1 215 0
 226 0020 0123     		movs	r3, #1
 227 0022 5B42     		rsbs	r3, r3, #0
 228 0024 3B62     		str	r3, [r7, #32]
 216:bma2x2_support.c **** 
 217:bma2x2_support.c **** 
 218:bma2x2_support.c **** /*********************** START INITIALIZATION ************************
 219:bma2x2_support.c ****   *	Based on the user need configure I2C or SPI interface.
 220:bma2x2_support.c ****   *	It is example code to explain how to use the bma2x2 API*/
 221:bma2x2_support.c **** 	I2C_routine(bma2x2);
 229              		.loc 1 221 0
 230 0026 7B68     		ldr	r3, [r7, #4]
 231 0028 1800     		movs	r0, r3
 232 002a FFF7FEFF 		bl	I2C_routine
 222:bma2x2_support.c **** 
 223:bma2x2_support.c ****  /*--------------------------------------------------------------------------*
 224:bma2x2_support.c ****  *  This function used to assign the value/reference of
ARM GAS  C:\Users\Tudor\AppData\Local\Temp\cc9veP4D.s 			page 9


 225:bma2x2_support.c ****  *	the following parameters
 226:bma2x2_support.c ****  *	I2C address
 227:bma2x2_support.c ****  *	Bus Write
 228:bma2x2_support.c ****  *	Bus read
 229:bma2x2_support.c ****  *	Chip id
 230:bma2x2_support.c ****  *-------------------------------------------------------------------------*/
 231:bma2x2_support.c **** 	com_rslt = bma2x2_init(bma2x2);
 233              		.loc 1 231 0
 234 002e 7B68     		ldr	r3, [r7, #4]
 235 0030 1800     		movs	r0, r3
 236 0032 FFF7FEFF 		bl	bma2x2_init
 237 0036 0300     		movs	r3, r0
 238 0038 3B62     		str	r3, [r7, #32]
 232:bma2x2_support.c **** 
 233:bma2x2_support.c **** /*	For initialization it is required to set the mode of
 234:bma2x2_support.c ****  *	the sensor as "NORMAL"
 235:bma2x2_support.c ****  *	NORMAL mode is set from the register 0x11 and 0x12
 236:bma2x2_support.c ****  *	0x11 -> bit 5,6,7 -> set value as 0
 237:bma2x2_support.c ****  *	0x12 -> bit 5,6 -> set value as 0
 238:bma2x2_support.c ****  *	data acquisition/read/write is possible in this mode
 239:bma2x2_support.c ****  *	by using the below API able to set the power mode as NORMAL
 240:bma2x2_support.c ****  *	For the Normal/standby/Low power 2 mode Idle time
 241:bma2x2_support.c **** 		of at least 2us(micro seconds)
 242:bma2x2_support.c ****  *	required for read/write operations*/
 243:bma2x2_support.c **** 	/* Set the power mode as NORMAL*/
 244:bma2x2_support.c **** 	com_rslt += bma2x2_set_power_mode(BMA2x2_MODE_NORMAL);
 239              		.loc 1 244 0
 240 003a 0020     		movs	r0, #0
 241 003c FFF7FEFF 		bl	bma2x2_set_power_mode
 242 0040 0300     		movs	r3, r0
 243 0042 1A00     		movs	r2, r3
 244 0044 3B6A     		ldr	r3, [r7, #32]
 245 0046 9B18     		adds	r3, r3, r2
 246 0048 3B62     		str	r3, [r7, #32]
 245:bma2x2_support.c **** /*	Note:
 246:bma2x2_support.c **** 	* For the Suspend/Low power1 mode Idle time of
 247:bma2x2_support.c **** 		at least 450us(micro seconds)
 248:bma2x2_support.c **** 	* required for read/write operations*/
 249:bma2x2_support.c **** 
 250:bma2x2_support.c **** /************************* END INITIALIZATION *************************/
 251:bma2x2_support.c **** 
 252:bma2x2_support.c **** /*------------------------------------------------------------------------*
 253:bma2x2_support.c **** ************************* START GET and SET FUNCTIONS DATA ****************
 254:bma2x2_support.c **** *---------------------------------------------------------------------------*/
 255:bma2x2_support.c **** 	/* This API used to Write the bandwidth of the sensor input
 256:bma2x2_support.c **** 	value have to be given
 257:bma2x2_support.c **** 	bandwidth is set from the register 0x10 bits from 1 to 4*/
 258:bma2x2_support.c **** 	bw_value_u8 = 0x08;/* set bandwidth of 7.81Hz*/
 247              		.loc 1 258 0
 248 004a 2723     		movs	r3, #39
 249 004c FB18     		adds	r3, r7, r3
 250 004e 0822     		movs	r2, #8
 251 0050 1A70     		strb	r2, [r3]
 259:bma2x2_support.c **** 	com_rslt += bma2x2_set_bw(bw_value_u8);
 252              		.loc 1 259 0
 253 0052 2723     		movs	r3, #39
 254 0054 FB18     		adds	r3, r7, r3
ARM GAS  C:\Users\Tudor\AppData\Local\Temp\cc9veP4D.s 			page 10


 255 0056 1B78     		ldrb	r3, [r3]
 256 0058 1800     		movs	r0, r3
 257 005a FFF7FEFF 		bl	bma2x2_set_bw
 258 005e 0300     		movs	r3, r0
 259 0060 1A00     		movs	r2, r3
 260 0062 3B6A     		ldr	r3, [r7, #32]
 261 0064 9B18     		adds	r3, r3, r2
 262 0066 3B62     		str	r3, [r7, #32]
 260:bma2x2_support.c **** 
 261:bma2x2_support.c **** 	/* This API used to read back the written value of bandwidth*/
 262:bma2x2_support.c **** 	com_rslt += bma2x2_get_bw(&banwid);
 263              		.loc 1 262 0
 264 0068 0B23     		movs	r3, #11
 265 006a FB18     		adds	r3, r7, r3
 266 006c 1800     		movs	r0, r3
 267 006e FFF7FEFF 		bl	bma2x2_get_bw
 268 0072 0300     		movs	r3, r0
 269 0074 1A00     		movs	r2, r3
 270 0076 3B6A     		ldr	r3, [r7, #32]
 271 0078 9B18     		adds	r3, r3, r2
 272 007a 3B62     		str	r3, [r7, #32]
 263:bma2x2_support.c **** /*-----------------------------------------------------------------*
 264:bma2x2_support.c **** ************************* END GET and SET FUNCTIONS ****************
 265:bma2x2_support.c **** *-------------------------------------------------------------------*/
 266:bma2x2_support.c **** /*------------------------------------------------------------------*
 267:bma2x2_support.c **** ************************* START READ SENSOR DATA(X,Y and Z axis) ********
 268:bma2x2_support.c **** *---------------------------------------------------------------------*/
 269:bma2x2_support.c **** 	/* Read the accel X data*/
 270:bma2x2_support.c **** 	com_rslt += bma2x2_read_accel_x(&accel_x_s16);
 273              		.loc 1 270 0
 274 007c 1E23     		movs	r3, #30
 275 007e FB18     		adds	r3, r7, r3
 276 0080 1800     		movs	r0, r3
 277 0082 FFF7FEFF 		bl	bma2x2_read_accel_x
 278 0086 0300     		movs	r3, r0
 279 0088 1A00     		movs	r2, r3
 280 008a 3B6A     		ldr	r3, [r7, #32]
 281 008c 9B18     		adds	r3, r3, r2
 282 008e 3B62     		str	r3, [r7, #32]
 271:bma2x2_support.c **** 	/* Read the accel Y data*/
 272:bma2x2_support.c **** 	com_rslt += bma2x2_read_accel_y(&accel_y_s16);
 283              		.loc 1 272 0
 284 0090 1C23     		movs	r3, #28
 285 0092 FB18     		adds	r3, r7, r3
 286 0094 1800     		movs	r0, r3
 287 0096 FFF7FEFF 		bl	bma2x2_read_accel_y
 288 009a 0300     		movs	r3, r0
 289 009c 1A00     		movs	r2, r3
 290 009e 3B6A     		ldr	r3, [r7, #32]
 291 00a0 9B18     		adds	r3, r3, r2
 292 00a2 3B62     		str	r3, [r7, #32]
 273:bma2x2_support.c **** 	/* Read the accel Z data*/
 274:bma2x2_support.c **** 	com_rslt += bma2x2_read_accel_z(&accel_z_s16);
 293              		.loc 1 274 0
 294 00a4 1A23     		movs	r3, #26
 295 00a6 FB18     		adds	r3, r7, r3
 296 00a8 1800     		movs	r0, r3
ARM GAS  C:\Users\Tudor\AppData\Local\Temp\cc9veP4D.s 			page 11


 297 00aa FFF7FEFF 		bl	bma2x2_read_accel_z
 298 00ae 0300     		movs	r3, r0
 299 00b0 1A00     		movs	r2, r3
 300 00b2 3B6A     		ldr	r3, [r7, #32]
 301 00b4 9B18     		adds	r3, r3, r2
 302 00b6 3B62     		str	r3, [r7, #32]
 275:bma2x2_support.c **** 
 276:bma2x2_support.c **** 	/* accessing the bma2x2acc_data parameter by using sample_xyz*/
 277:bma2x2_support.c **** 	/* Read the accel XYZ data*/
 278:bma2x2_support.c **** 	com_rslt += bma2x2_read_accel_xyz(&sample_xyz);
 303              		.loc 1 278 0
 304 00b8 1423     		movs	r3, #20
 305 00ba FB18     		adds	r3, r7, r3
 306 00bc 1800     		movs	r0, r3
 307 00be FFF7FEFF 		bl	bma2x2_read_accel_xyz
 308 00c2 0300     		movs	r3, r0
 309 00c4 1A00     		movs	r2, r3
 310 00c6 3B6A     		ldr	r3, [r7, #32]
 311 00c8 9B18     		adds	r3, r3, r2
 312 00ca 3B62     		str	r3, [r7, #32]
 279:bma2x2_support.c **** 
 280:bma2x2_support.c **** 	/* accessing the bma2x2acc_data_temp parameter by using sample_xyzt*/
 281:bma2x2_support.c **** 	/* Read the accel XYZT data*/
 282:bma2x2_support.c **** 	com_rslt += bma2x2_read_accel_xyzt(&sample_xyzt);
 313              		.loc 1 282 0
 314 00cc 0C23     		movs	r3, #12
 315 00ce FB18     		adds	r3, r7, r3
 316 00d0 1800     		movs	r0, r3
 317 00d2 FFF7FEFF 		bl	bma2x2_read_accel_xyzt
 318 00d6 0300     		movs	r3, r0
 319 00d8 1A00     		movs	r2, r3
 320 00da 3B6A     		ldr	r3, [r7, #32]
 321 00dc 9B18     		adds	r3, r3, r2
 322 00de 3B62     		str	r3, [r7, #32]
 283:bma2x2_support.c **** 
 284:bma2x2_support.c **** /*--------------------------------------------------------------------*
 285:bma2x2_support.c **** ************************* END READ SENSOR DATA(X,Y and Z axis) ************
 286:bma2x2_support.c **** *-------------------------------------------------------------------------*/
 287:bma2x2_support.c **** /*-----------------------------------------------------------------------*
 288:bma2x2_support.c **** ************************* START DE-INITIALIZATION ***********************
 289:bma2x2_support.c **** *-------------------------------------------------------------------------*/
 290:bma2x2_support.c **** /*	For de-initialization it is required to set the mode of
 291:bma2x2_support.c ****  *	the sensor as "DEEP SUSPEND"
 292:bma2x2_support.c ****  *	DEEP SUSPEND mode is set from the register 0x11
 293:bma2x2_support.c ****  *	0x11 -> bit 5 -> set value as 1
 294:bma2x2_support.c ****  *	the device reaches the lowest power consumption only
 295:bma2x2_support.c ****  *	interface selection is kept alive
 296:bma2x2_support.c ****  *	No data acquisition is performed
 297:bma2x2_support.c ****  *	by using the below API able to set the power mode as DEEPSUSPEND*/
 298:bma2x2_support.c ****  /* Set the power mode as DEEPSUSPEND*/
 299:bma2x2_support.c **** 	com_rslt += bma2x2_set_power_mode(BMA2x2_MODE_DEEP_SUSPEND);
 323              		.loc 1 299 0
 324 00e0 0320     		movs	r0, #3
 325 00e2 FFF7FEFF 		bl	bma2x2_set_power_mode
 326 00e6 0300     		movs	r3, r0
 327 00e8 1A00     		movs	r2, r3
 328 00ea 3B6A     		ldr	r3, [r7, #32]
ARM GAS  C:\Users\Tudor\AppData\Local\Temp\cc9veP4D.s 			page 12


 329 00ec 9B18     		adds	r3, r3, r2
 330 00ee 3B62     		str	r3, [r7, #32]
 300:bma2x2_support.c **** /*---------------------------------------------------------------------*
 301:bma2x2_support.c **** ************************* END DE-INITIALIZATION **********************
 302:bma2x2_support.c **** *---------------------------------------------------------------------*/
 303:bma2x2_support.c **** return com_rslt;
 331              		.loc 1 303 0
 332 00f0 3B6A     		ldr	r3, [r7, #32]
 304:bma2x2_support.c **** }
 333              		.loc 1 304 0
 334 00f2 1800     		movs	r0, r3
 335 00f4 BD46     		mov	sp, r7
 336 00f6 0AB0     		add	sp, sp, #40
 337              		@ sp needed
 338 00f8 80BD     		pop	{r7, pc}
 339              		.cfi_endproc
 340              	.LFE36:
 341              		.size	bma2x2_data_readout_template, .-bma2x2_data_readout_template
 342 00fa C046     		.section	.text.I2C_routine,"ax",%progbits
 343              		.align	2
 344              		.global	I2C_routine
 345              		.code	16
 346              		.thumb_func
 347              		.type	I2C_routine, %function
 348              	I2C_routine:
 349              	.LFB37:
 305:bma2x2_support.c **** 
 306:bma2x2_support.c **** /*--------------------------------------------------------------------------*
 307:bma2x2_support.c **** *	The following function is used to map the I2C bus read, write, delay and
 308:bma2x2_support.c **** *	device address with global structure bma2x2_t
 309:bma2x2_support.c **** *-------------------------------------------------------------------------*/
 310:bma2x2_support.c **** s8 I2C_routine(struct bma2x2_t *bma2x2)
 311:bma2x2_support.c **** {
 350              		.loc 1 311 0
 351              		.cfi_startproc
 352              		@ args = 0, pretend = 0, frame = 8
 353              		@ frame_needed = 1, uses_anonymous_args = 0
 354 0000 80B5     		push	{r7, lr}
 355              		.cfi_def_cfa_offset 8
 356              		.cfi_offset 7, -8
 357              		.cfi_offset 14, -4
 358 0002 82B0     		sub	sp, sp, #8
 359              		.cfi_def_cfa_offset 16
 360 0004 00AF     		add	r7, sp, #0
 361              		.cfi_def_cfa_register 7
 362 0006 7860     		str	r0, [r7, #4]
 312:bma2x2_support.c **** /*--------------------------------------------------------------------------*
 313:bma2x2_support.c ****  *  By using bma2x2 the following structure parameter can be accessed
 314:bma2x2_support.c ****  *	Bus write function pointer: BMA2x2_WR_FUNC_PTR
 315:bma2x2_support.c ****  *	Bus read function pointer: BMA2x2_RD_FUNC_PTR
 316:bma2x2_support.c ****  *	Delay function pointer: delay_msec
 317:bma2x2_support.c ****  *	I2C address: dev_id
 318:bma2x2_support.c ****  *--------------------------------------------------------------------------*/
 319:bma2x2_support.c **** 	bma2x2->bus_write = BMA2x2_I2C_bus_write;
 363              		.loc 1 319 0
 364 0008 7B68     		ldr	r3, [r7, #4]
 365 000a 084A     		ldr	r2, .L10
ARM GAS  C:\Users\Tudor\AppData\Local\Temp\cc9veP4D.s 			page 13


 366 000c 9A60     		str	r2, [r3, #8]
 320:bma2x2_support.c **** 	bma2x2->bus_read = BMA2x2_I2C_bus_read;
 367              		.loc 1 320 0
 368 000e 7B68     		ldr	r3, [r7, #4]
 369 0010 074A     		ldr	r2, .L10+4
 370 0012 DA60     		str	r2, [r3, #12]
 321:bma2x2_support.c **** 	bma2x2->delay_msec = BMA2x2_delay_msek;
 371              		.loc 1 321 0
 372 0014 7B68     		ldr	r3, [r7, #4]
 373 0016 074A     		ldr	r2, .L10+8
 374 0018 5A61     		str	r2, [r3, #20]
 322:bma2x2_support.c **** 	bma2x2->dev_addr = BMA2x2_I2C_ADDR1;
 375              		.loc 1 322 0
 376 001a 7B68     		ldr	r3, [r7, #4]
 377 001c 1822     		movs	r2, #24
 378 001e 1A71     		strb	r2, [r3, #4]
 323:bma2x2_support.c **** 
 324:bma2x2_support.c **** 	return BMA2x2_INIT_VALUE;
 379              		.loc 1 324 0
 380 0020 0023     		movs	r3, #0
 325:bma2x2_support.c **** }
 381              		.loc 1 325 0
 382 0022 1800     		movs	r0, r3
 383 0024 BD46     		mov	sp, r7
 384 0026 02B0     		add	sp, sp, #8
 385              		@ sp needed
 386 0028 80BD     		pop	{r7, pc}
 387              	.L11:
 388 002a C046     		.align	2
 389              	.L10:
 390 002c 00000000 		.word	BMA2x2_I2C_bus_write
 391 0030 00000000 		.word	BMA2x2_I2C_bus_read
 392 0034 00000000 		.word	BMA2x2_delay_msek
 393              		.cfi_endproc
 394              	.LFE37:
 395              		.size	I2C_routine, .-I2C_routine
 396              		.section	.text.BMA2x2_I2C_bus_write,"ax",%progbits
 397              		.align	2
 398              		.global	BMA2x2_I2C_bus_write
 399              		.code	16
 400              		.thumb_func
 401              		.type	BMA2x2_I2C_bus_write, %function
 402              	BMA2x2_I2C_bus_write:
 403              	.LFB38:
 326:bma2x2_support.c **** 
 327:bma2x2_support.c **** 
 328:bma2x2_support.c **** 
 329:bma2x2_support.c **** /************** I2C/SPI buffer length ******/
 330:bma2x2_support.c **** #define	I2C_BUFFER_LEN 8
 331:bma2x2_support.c **** #define BMA2x2_BUS_READ_WRITE_ARRAY_INDEX	1
 332:bma2x2_support.c **** #define BMA2x2_SPI_BUS_WRITE_CONTROL_BYTE	0x7F
 333:bma2x2_support.c **** #define BMA2x2_SPI_BUS_READ_CONTROL_BYTE	0x80
 334:bma2x2_support.c **** 
 335:bma2x2_support.c **** /*-------------------------------------------------------------------*
 336:bma2x2_support.c **** *	This is a sample code for read and write the data by using I2C/SPI
 337:bma2x2_support.c **** *	Use either I2C or SPI based on your need
 338:bma2x2_support.c **** *
ARM GAS  C:\Users\Tudor\AppData\Local\Temp\cc9veP4D.s 			page 14


 339:bma2x2_support.c **** *-----------------------------------------------------------------------*/
 340:bma2x2_support.c **** /*	For configuring the I2C it is required to switch ON
 341:bma2x2_support.c ****  *	SDI, SDO and CLk and also select the device address
 342:bma2x2_support.c ****  * The following definition of I2C address is used for the following sensors
 343:bma2x2_support.c ****  * BMA255
 344:bma2x2_support.c ****  * BMA253
 345:bma2x2_support.c ****  * BMA355
 346:bma2x2_support.c ****  * BMA280
 347:bma2x2_support.c ****  * BMA282
 348:bma2x2_support.c ****  * BMA223
 349:bma2x2_support.c ****  * BMA254
 350:bma2x2_support.c ****  * BMA284
 351:bma2x2_support.c ****  * BMA250E
 352:bma2x2_support.c ****  * BMA222E
 353:bma2x2_support.c **** 
 354:bma2x2_support.c ****  #define BMA2x2_I2C_ADDR1         0x18
 355:bma2x2_support.c ****  #define BMA2x2_I2C_ADDR2         0x19
 356:bma2x2_support.c **** 
 357:bma2x2_support.c ****  * The following definition of I2C address is used for the following sensors
 358:bma2x2_support.c ****  * BMC150
 359:bma2x2_support.c ****  * BMC056
 360:bma2x2_support.c ****  * BMC156
 361:bma2x2_support.c **** 
 362:bma2x2_support.c ****  #define BMA2x2_I2C_ADDR3        0x10
 363:bma2x2_support.c ****  #define BMA2x2_I2C_ADDR4        0x11
 364:bma2x2_support.c ****  *************************************************************************/
 365:bma2x2_support.c ****  /*	\Brief: The function is used as I2C bus write
 366:bma2x2_support.c ****  *	\Return : Status of the I2C write
 367:bma2x2_support.c ****  *	\param dev_id : The device address of the sensor
 368:bma2x2_support.c ****  *	\param reg_addr : Address of the first register,
 369:bma2x2_support.c ****  *              will data is going to be written
 370:bma2x2_support.c ****  *	\param reg_data : It is a value hold in the array,
 371:bma2x2_support.c ****  *		will be used for write the value into the register
 372:bma2x2_support.c ****  *	\param len : The no of byte of data to be written
 373:bma2x2_support.c ****  */
 374:bma2x2_support.c **** s8 BMA2x2_I2C_bus_write(u8 dev_id, u8 reg_addr, u8 *reg_data, u8 len)
 375:bma2x2_support.c **** {
 404              		.loc 1 375 0
 405              		.cfi_startproc
 406              		@ args = 0, pretend = 0, frame = 24
 407              		@ frame_needed = 1, uses_anonymous_args = 0
 408 0000 90B5     		push	{r4, r7, lr}
 409              		.cfi_def_cfa_offset 12
 410              		.cfi_offset 4, -12
 411              		.cfi_offset 7, -8
 412              		.cfi_offset 14, -4
 413 0002 87B0     		sub	sp, sp, #28
 414              		.cfi_def_cfa_offset 40
 415 0004 00AF     		add	r7, sp, #0
 416              		.cfi_def_cfa_register 7
 417 0006 0400     		movs	r4, r0
 418 0008 0800     		movs	r0, r1
 419 000a 3A60     		str	r2, [r7]
 420 000c 1900     		movs	r1, r3
 421 000e FB1D     		adds	r3, r7, #7
 422 0010 221C     		adds	r2, r4, #0
 423 0012 1A70     		strb	r2, [r3]
ARM GAS  C:\Users\Tudor\AppData\Local\Temp\cc9veP4D.s 			page 15


 424 0014 BB1D     		adds	r3, r7, #6
 425 0016 021C     		adds	r2, r0, #0
 426 0018 1A70     		strb	r2, [r3]
 427 001a 7B1D     		adds	r3, r7, #5
 428 001c 0A1C     		adds	r2, r1, #0
 429 001e 1A70     		strb	r2, [r3]
 376:bma2x2_support.c ****     uint8_t i = 0;          // Index 
 430              		.loc 1 376 0
 431 0020 1723     		movs	r3, #23
 432 0022 FB18     		adds	r3, r7, r3
 433 0024 0022     		movs	r2, #0
 434 0026 1A70     		strb	r2, [r3]
 377:bma2x2_support.c ****     int8_t rslt = 0;        // Return 0 for Success, non-zero for failure 
 435              		.loc 1 377 0
 436 0028 1623     		movs	r3, #22
 437 002a FB18     		adds	r3, r7, r3
 438 002c 0022     		movs	r2, #0
 439 002e 1A70     		strb	r2, [r3]
 378:bma2x2_support.c **** 
 379:bma2x2_support.c ****     /*
 380:bma2x2_support.c ****      * The parameter dev_id can be used as a variable to store the I2C address of the device
 381:bma2x2_support.c ****      */
 382:bma2x2_support.c **** 
 383:bma2x2_support.c ****     /*
 384:bma2x2_support.c ****      * Data on the bus should be like
 385:bma2x2_support.c ****      * |------------+---------------------|
 386:bma2x2_support.c ****      * | I2C action | Data                |
 387:bma2x2_support.c ****      * |------------+---------------------|
 388:bma2x2_support.c ****      * | Start      | -                   |
 389:bma2x2_support.c ****      * | Write      | (reg_addr)          |
 390:bma2x2_support.c ****      * | Write      | (reg_data[0])       |
 391:bma2x2_support.c ****      * | Write      | (....)              |
 392:bma2x2_support.c ****      * | Write      | (reg_data[len - 1]) |
 393:bma2x2_support.c ****      * | Stop       | -                   |
 394:bma2x2_support.c ****      * |------------+---------------------|
 395:bma2x2_support.c ****      */
 396:bma2x2_support.c **** 
 397:bma2x2_support.c ****     uint8_t data[10];           // Array to store the data to be written     
 398:bma2x2_support.c ****     
 399:bma2x2_support.c ****     /* Set start address */
 400:bma2x2_support.c ****     data[0]=reg_addr;                   
 440              		.loc 1 400 0
 441 0030 0C23     		movs	r3, #12
 442 0032 FB18     		adds	r3, r7, r3
 443 0034 BA1D     		adds	r2, r7, #6
 444 0036 1278     		ldrb	r2, [r2]
 445 0038 1A70     		strb	r2, [r3]
 401:bma2x2_support.c ****     
 402:bma2x2_support.c ****     /* Add data to be written */
 403:bma2x2_support.c ****     for(i = 1; i <= len; i++)
 446              		.loc 1 403 0
 447 003a 1723     		movs	r3, #23
 448 003c FB18     		adds	r3, r7, r3
 449 003e 0122     		movs	r2, #1
 450 0040 1A70     		strb	r2, [r3]
 451 0042 11E0     		b	.L13
 452              	.L14:
ARM GAS  C:\Users\Tudor\AppData\Local\Temp\cc9veP4D.s 			page 16


 404:bma2x2_support.c ****     {
 405:bma2x2_support.c ****         data[i] = *reg_data;
 453              		.loc 1 405 0 discriminator 3
 454 0044 1723     		movs	r3, #23
 455 0046 FB18     		adds	r3, r7, r3
 456 0048 1B78     		ldrb	r3, [r3]
 457 004a 3A68     		ldr	r2, [r7]
 458 004c 1178     		ldrb	r1, [r2]
 459 004e 0C22     		movs	r2, #12
 460 0050 BA18     		adds	r2, r7, r2
 461 0052 D154     		strb	r1, [r2, r3]
 406:bma2x2_support.c ****         /* Go to next element */
 407:bma2x2_support.c ****         reg_data++;
 462              		.loc 1 407 0 discriminator 3
 463 0054 3B68     		ldr	r3, [r7]
 464 0056 0133     		adds	r3, r3, #1
 465 0058 3B60     		str	r3, [r7]
 403:bma2x2_support.c ****     {
 466              		.loc 1 403 0 discriminator 3
 467 005a 1723     		movs	r3, #23
 468 005c FB18     		adds	r3, r7, r3
 469 005e 1A78     		ldrb	r2, [r3]
 470 0060 1723     		movs	r3, #23
 471 0062 FB18     		adds	r3, r7, r3
 472 0064 0132     		adds	r2, r2, #1
 473 0066 1A70     		strb	r2, [r3]
 474              	.L13:
 403:bma2x2_support.c ****     {
 475              		.loc 1 403 0 is_stmt 0 discriminator 1
 476 0068 1723     		movs	r3, #23
 477 006a FA18     		adds	r2, r7, r3
 478 006c 7B1D     		adds	r3, r7, #5
 479 006e 1278     		ldrb	r2, [r2]
 480 0070 1B78     		ldrb	r3, [r3]
 481 0072 9A42     		cmp	r2, r3
 482 0074 E6D9     		bls	.L14
 408:bma2x2_support.c ****     }
 409:bma2x2_support.c ****     
 410:bma2x2_support.c ****     /* Send START */
 411:bma2x2_support.c ****     rslt = I2C_I2CMasterSendStart(dev_id,I2C_I2C_WRITE_XFER_MODE,I2C_TIMEOUT);
 483              		.loc 1 411 0 is_stmt 1
 484 0076 FB1D     		adds	r3, r7, #7
 485 0078 1B78     		ldrb	r3, [r3]
 486 007a 6422     		movs	r2, #100
 487 007c 0021     		movs	r1, #0
 488 007e 1800     		movs	r0, r3
 489 0080 FFF7FEFF 		bl	I2C_I2CMasterSendStart
 490 0084 0200     		movs	r2, r0
 491 0086 1623     		movs	r3, #22
 492 0088 FB18     		adds	r3, r7, r3
 493 008a 1A70     		strb	r2, [r3]
 412:bma2x2_support.c ****     
 413:bma2x2_support.c ****     /* Write data, byte by byte */
 414:bma2x2_support.c ****     i=0;
 494              		.loc 1 414 0
 495 008c 1723     		movs	r3, #23
 496 008e FB18     		adds	r3, r7, r3
ARM GAS  C:\Users\Tudor\AppData\Local\Temp\cc9veP4D.s 			page 17


 497 0090 0022     		movs	r2, #0
 498 0092 1A70     		strb	r2, [r3]
 415:bma2x2_support.c ****     while ((i<=len)&&(rslt == I2C_I2C_MSTR_NO_ERROR))
 499              		.loc 1 415 0
 500 0094 14E0     		b	.L15
 501              	.L17:
 416:bma2x2_support.c ****     {
 417:bma2x2_support.c ****             rslt = I2C_I2CMasterWriteByte(data[i],I2C_TIMEOUT);
 502              		.loc 1 417 0
 503 0096 1723     		movs	r3, #23
 504 0098 FB18     		adds	r3, r7, r3
 505 009a 1B78     		ldrb	r3, [r3]
 506 009c 0C22     		movs	r2, #12
 507 009e BA18     		adds	r2, r7, r2
 508 00a0 D35C     		ldrb	r3, [r2, r3]
 509 00a2 6421     		movs	r1, #100
 510 00a4 1800     		movs	r0, r3
 511 00a6 FFF7FEFF 		bl	I2C_I2CMasterWriteByte
 512 00aa 0200     		movs	r2, r0
 513 00ac 1623     		movs	r3, #22
 514 00ae FB18     		adds	r3, r7, r3
 515 00b0 1A70     		strb	r2, [r3]
 418:bma2x2_support.c ****             i++;
 516              		.loc 1 418 0
 517 00b2 1723     		movs	r3, #23
 518 00b4 FB18     		adds	r3, r7, r3
 519 00b6 1A78     		ldrb	r2, [r3]
 520 00b8 1723     		movs	r3, #23
 521 00ba FB18     		adds	r3, r7, r3
 522 00bc 0132     		adds	r2, r2, #1
 523 00be 1A70     		strb	r2, [r3]
 524              	.L15:
 415:bma2x2_support.c ****     while ((i<=len)&&(rslt == I2C_I2C_MSTR_NO_ERROR))
 525              		.loc 1 415 0
 526 00c0 1723     		movs	r3, #23
 527 00c2 FA18     		adds	r2, r7, r3
 528 00c4 7B1D     		adds	r3, r7, #5
 529 00c6 1278     		ldrb	r2, [r2]
 530 00c8 1B78     		ldrb	r3, [r3]
 531 00ca 9A42     		cmp	r2, r3
 532 00cc 05D8     		bhi	.L16
 415:bma2x2_support.c ****     while ((i<=len)&&(rslt == I2C_I2C_MSTR_NO_ERROR))
 533              		.loc 1 415 0 is_stmt 0 discriminator 1
 534 00ce 1623     		movs	r3, #22
 535 00d0 FB18     		adds	r3, r7, r3
 536 00d2 1B78     		ldrb	r3, [r3]
 537 00d4 5BB2     		sxtb	r3, r3
 538 00d6 002B     		cmp	r3, #0
 539 00d8 DDD0     		beq	.L17
 540              	.L16:
 419:bma2x2_support.c ****     }
 420:bma2x2_support.c ****     
 421:bma2x2_support.c ****     /* Send STOP */
 422:bma2x2_support.c ****     I2C_I2CMasterSendStop(I2C_TIMEOUT);
 541              		.loc 1 422 0 is_stmt 1
 542 00da 6420     		movs	r0, #100
 543 00dc FFF7FEFF 		bl	I2C_I2CMasterSendStop
ARM GAS  C:\Users\Tudor\AppData\Local\Temp\cc9veP4D.s 			page 18


 423:bma2x2_support.c ****     
 424:bma2x2_support.c ****     return rslt;
 544              		.loc 1 424 0
 545 00e0 1623     		movs	r3, #22
 546 00e2 FB18     		adds	r3, r7, r3
 547 00e4 1B78     		ldrb	r3, [r3]
 548 00e6 5BB2     		sxtb	r3, r3
 425:bma2x2_support.c **** }
 549              		.loc 1 425 0
 550 00e8 1800     		movs	r0, r3
 551 00ea BD46     		mov	sp, r7
 552 00ec 07B0     		add	sp, sp, #28
 553              		@ sp needed
 554 00ee 90BD     		pop	{r4, r7, pc}
 555              		.cfi_endproc
 556              	.LFE38:
 557              		.size	BMA2x2_I2C_bus_write, .-BMA2x2_I2C_bus_write
 558              		.section	.text.BMA2x2_I2C_bus_read,"ax",%progbits
 559              		.align	2
 560              		.global	BMA2x2_I2C_bus_read
 561              		.code	16
 562              		.thumb_func
 563              		.type	BMA2x2_I2C_bus_read, %function
 564              	BMA2x2_I2C_bus_read:
 565              	.LFB39:
 426:bma2x2_support.c **** 
 427:bma2x2_support.c ****  /*   \Brief: The function is used as I2C bus read
 428:bma2x2_support.c ****  *    \Return : Status of the I2C read
 429:bma2x2_support.c ****  *    \param dev_id : The device address of the sensor
 430:bma2x2_support.c ****  *    \param reg_addr : Address of the first register,
 431:bma2x2_support.c ****  *            will data is going to be read
 432:bma2x2_support.c ****  *    \param reg_data : This data read from the sensor,
 433:bma2x2_support.c ****  *            which is hold in an array
 434:bma2x2_support.c ****  *    \param len : The no of byte of data to be read
 435:bma2x2_support.c ****  */
 436:bma2x2_support.c **** s8 BMA2x2_I2C_bus_read(u8 dev_id, u8 reg_addr, u8 *reg_data, u8 len)
 437:bma2x2_support.c **** {
 566              		.loc 1 437 0
 567              		.cfi_startproc
 568              		@ args = 0, pretend = 0, frame = 16
 569              		@ frame_needed = 1, uses_anonymous_args = 0
 570 0000 90B5     		push	{r4, r7, lr}
 571              		.cfi_def_cfa_offset 12
 572              		.cfi_offset 4, -12
 573              		.cfi_offset 7, -8
 574              		.cfi_offset 14, -4
 575 0002 85B0     		sub	sp, sp, #20
 576              		.cfi_def_cfa_offset 32
 577 0004 00AF     		add	r7, sp, #0
 578              		.cfi_def_cfa_register 7
 579 0006 0400     		movs	r4, r0
 580 0008 0800     		movs	r0, r1
 581 000a 3A60     		str	r2, [r7]
 582 000c 1900     		movs	r1, r3
 583 000e FB1D     		adds	r3, r7, #7
 584 0010 221C     		adds	r2, r4, #0
 585 0012 1A70     		strb	r2, [r3]
ARM GAS  C:\Users\Tudor\AppData\Local\Temp\cc9veP4D.s 			page 19


 586 0014 BB1D     		adds	r3, r7, #6
 587 0016 021C     		adds	r2, r0, #0
 588 0018 1A70     		strb	r2, [r3]
 589 001a 7B1D     		adds	r3, r7, #5
 590 001c 0A1C     		adds	r2, r1, #0
 591 001e 1A70     		strb	r2, [r3]
 438:bma2x2_support.c ****     int8_t rslt = 0;            // Return 0 for Success, non-zero for failure 
 592              		.loc 1 438 0
 593 0020 0F23     		movs	r3, #15
 594 0022 FB18     		adds	r3, r7, r3
 595 0024 0022     		movs	r2, #0
 596 0026 1A70     		strb	r2, [r3]
 439:bma2x2_support.c **** 
 440:bma2x2_support.c ****     /*
 441:bma2x2_support.c ****      * The parameter dev_id can be used as a variable to store the I2C address of the device
 442:bma2x2_support.c ****      */
 443:bma2x2_support.c **** 
 444:bma2x2_support.c ****     /*
 445:bma2x2_support.c ****      * Data on the bus should be like
 446:bma2x2_support.c ****      * |------------+---------------------|
 447:bma2x2_support.c ****      * | I2C action | Data                |
 448:bma2x2_support.c ****      * |------------+---------------------|
 449:bma2x2_support.c ****      * | Start      | -                   |
 450:bma2x2_support.c ****      * | Write      | (reg_addr)          |
 451:bma2x2_support.c ****      * | Stop       | -                   |
 452:bma2x2_support.c ****      * | Start      | -                   |
 453:bma2x2_support.c ****      * | Read       | (reg_data[0])       |
 454:bma2x2_support.c ****      * | Read       | (....)              |
 455:bma2x2_support.c ****      * | Read       | (reg_data[len - 1]) |
 456:bma2x2_support.c ****      * | Stop       | -                   |
 457:bma2x2_support.c ****      * |------------+---------------------|
 458:bma2x2_support.c ****      */
 459:bma2x2_support.c **** 
 460:bma2x2_support.c ****     uint8_t *ptr = reg_data;        // Pointer to the register address from where the data will be 
 597              		.loc 1 460 0
 598 0028 3B68     		ldr	r3, [r7]
 599 002a BB60     		str	r3, [r7, #8]
 461:bma2x2_support.c ****     
 462:bma2x2_support.c ****     /* Send START */
 463:bma2x2_support.c ****     rslt = I2C_I2CMasterSendStart(dev_id,I2C_I2C_WRITE_XFER_MODE,I2C_TIMEOUT);
 600              		.loc 1 463 0
 601 002c FB1D     		adds	r3, r7, #7
 602 002e 1B78     		ldrb	r3, [r3]
 603 0030 6422     		movs	r2, #100
 604 0032 0021     		movs	r1, #0
 605 0034 1800     		movs	r0, r3
 606 0036 FFF7FEFF 		bl	I2C_I2CMasterSendStart
 607 003a 0200     		movs	r2, r0
 608 003c 0F23     		movs	r3, #15
 609 003e FB18     		adds	r3, r7, r3
 610 0040 1A70     		strb	r2, [r3]
 464:bma2x2_support.c ****     
 465:bma2x2_support.c ****     /* Write address to read from */
 466:bma2x2_support.c ****     if (rslt == I2C_I2C_MSTR_NO_ERROR)
 611              		.loc 1 466 0
 612 0042 0F23     		movs	r3, #15
 613 0044 FB18     		adds	r3, r7, r3
ARM GAS  C:\Users\Tudor\AppData\Local\Temp\cc9veP4D.s 			page 20


 614 0046 1B78     		ldrb	r3, [r3]
 615 0048 5BB2     		sxtb	r3, r3
 616 004a 002B     		cmp	r3, #0
 617 004c 09D1     		bne	.L20
 467:bma2x2_support.c ****     {
 468:bma2x2_support.c ****         rslt = I2C_I2CMasterWriteByte(reg_addr,I2C_TIMEOUT);
 618              		.loc 1 468 0
 619 004e BB1D     		adds	r3, r7, #6
 620 0050 1B78     		ldrb	r3, [r3]
 621 0052 6421     		movs	r1, #100
 622 0054 1800     		movs	r0, r3
 623 0056 FFF7FEFF 		bl	I2C_I2CMasterWriteByte
 624 005a 0200     		movs	r2, r0
 625 005c 0F23     		movs	r3, #15
 626 005e FB18     		adds	r3, r7, r3
 627 0060 1A70     		strb	r2, [r3]
 628              	.L20:
 469:bma2x2_support.c ****     }
 470:bma2x2_support.c ****     
 471:bma2x2_support.c ****     /* Send STOP */
 472:bma2x2_support.c ****     if (rslt == I2C_I2C_MSTR_NO_ERROR)
 629              		.loc 1 472 0
 630 0062 0F23     		movs	r3, #15
 631 0064 FB18     		adds	r3, r7, r3
 632 0066 1B78     		ldrb	r3, [r3]
 633 0068 5BB2     		sxtb	r3, r3
 634 006a 002B     		cmp	r3, #0
 635 006c 06D1     		bne	.L21
 473:bma2x2_support.c ****     {
 474:bma2x2_support.c ****         rslt = I2C_I2CMasterSendStop(I2C_TIMEOUT);
 636              		.loc 1 474 0
 637 006e 6420     		movs	r0, #100
 638 0070 FFF7FEFF 		bl	I2C_I2CMasterSendStop
 639 0074 0200     		movs	r2, r0
 640 0076 0F23     		movs	r3, #15
 641 0078 FB18     		adds	r3, r7, r3
 642 007a 1A70     		strb	r2, [r3]
 643              	.L21:
 475:bma2x2_support.c ****     }
 476:bma2x2_support.c ****     
 477:bma2x2_support.c ****     /* Send START */
 478:bma2x2_support.c ****     if (rslt == I2C_I2C_MSTR_NO_ERROR)
 644              		.loc 1 478 0
 645 007c 0F23     		movs	r3, #15
 646 007e FB18     		adds	r3, r7, r3
 647 0080 1B78     		ldrb	r3, [r3]
 648 0082 5BB2     		sxtb	r3, r3
 649 0084 002B     		cmp	r3, #0
 650 0086 23D1     		bne	.L23
 479:bma2x2_support.c ****     {
 480:bma2x2_support.c ****         rslt = I2C_I2CMasterSendStart(dev_id,I2C_I2C_READ_XFER_MODE,I2C_TIMEOUT);
 651              		.loc 1 480 0
 652 0088 FB1D     		adds	r3, r7, #7
 653 008a 1B78     		ldrb	r3, [r3]
 654 008c 6422     		movs	r2, #100
 655 008e 0121     		movs	r1, #1
 656 0090 1800     		movs	r0, r3
ARM GAS  C:\Users\Tudor\AppData\Local\Temp\cc9veP4D.s 			page 21


 657 0092 FFF7FEFF 		bl	I2C_I2CMasterSendStart
 658 0096 0200     		movs	r2, r0
 659 0098 0F23     		movs	r3, #15
 660 009a FB18     		adds	r3, r7, r3
 661 009c 1A70     		strb	r2, [r3]
 481:bma2x2_support.c ****     }
 482:bma2x2_support.c ****     
 483:bma2x2_support.c ****     /* Read data, byte by byte */
 484:bma2x2_support.c ****     while( len-- > 1 )
 662              		.loc 1 484 0
 663 009e 17E0     		b	.L23
 664              	.L24:
 665 00a0 0F23     		movs	r3, #15
 666 00a2 FB18     		adds	r3, r7, r3
 667 00a4 0F22     		movs	r2, #15
 668 00a6 BA18     		adds	r2, r7, r2
 669 00a8 1278     		ldrb	r2, [r2]
 670 00aa 1A70     		strb	r2, [r3]
 485:bma2x2_support.c ****     {
 486:bma2x2_support.c ****         /* Check for errors at master reading */
 487:bma2x2_support.c ****         if (rslt == I2C_I2C_MSTR_NO_ERROR)
 671              		.loc 1 487 0
 672 00ac 0F23     		movs	r3, #15
 673 00ae FB18     		adds	r3, r7, r3
 674 00b0 1B78     		ldrb	r3, [r3]
 675 00b2 5BB2     		sxtb	r3, r3
 676 00b4 002B     		cmp	r3, #0
 677 00b6 0BD1     		bne	.L23
 488:bma2x2_support.c ****         {
 489:bma2x2_support.c ****             /* Send an AK to notify that the reading operation continues */
 490:bma2x2_support.c ****             rslt = I2C_I2CMasterReadByte(I2C_I2C_ACK_DATA,ptr++,I2C_TIMEOUT);
 678              		.loc 1 490 0
 679 00b8 BB68     		ldr	r3, [r7, #8]
 680 00ba 5A1C     		adds	r2, r3, #1
 681 00bc BA60     		str	r2, [r7, #8]
 682 00be 6422     		movs	r2, #100
 683 00c0 1900     		movs	r1, r3
 684 00c2 0020     		movs	r0, #0
 685 00c4 FFF7FEFF 		bl	I2C_I2CMasterReadByte
 686 00c8 0200     		movs	r2, r0
 687 00ca 0F23     		movs	r3, #15
 688 00cc FB18     		adds	r3, r7, r3
 689 00ce 1A70     		strb	r2, [r3]
 690              	.L23:
 484:bma2x2_support.c ****     {
 691              		.loc 1 484 0
 692 00d0 7B1D     		adds	r3, r7, #5
 693 00d2 1B78     		ldrb	r3, [r3]
 694 00d4 7A1D     		adds	r2, r7, #5
 695 00d6 591E     		subs	r1, r3, #1
 696 00d8 1170     		strb	r1, [r2]
 697 00da 012B     		cmp	r3, #1
 698 00dc E0D8     		bhi	.L24
 491:bma2x2_support.c ****         }
 492:bma2x2_support.c ****     }
 493:bma2x2_support.c ****     
 494:bma2x2_support.c ****     /* Read last BYTE */
ARM GAS  C:\Users\Tudor\AppData\Local\Temp\cc9veP4D.s 			page 22


 495:bma2x2_support.c ****     if (rslt == I2C_I2C_MSTR_NO_ERROR)
 699              		.loc 1 495 0
 700 00de 0F23     		movs	r3, #15
 701 00e0 FB18     		adds	r3, r7, r3
 702 00e2 1B78     		ldrb	r3, [r3]
 703 00e4 5BB2     		sxtb	r3, r3
 704 00e6 002B     		cmp	r3, #0
 705 00e8 09D1     		bne	.L25
 496:bma2x2_support.c ****     {
 497:bma2x2_support.c ****         /* Send a NAK to notify that the reading operation is complete */
 498:bma2x2_support.c ****         rslt = I2C_I2CMasterReadByte(I2C_I2C_NAK_DATA,ptr,I2C_TIMEOUT);
 706              		.loc 1 498 0
 707 00ea BB68     		ldr	r3, [r7, #8]
 708 00ec 6422     		movs	r2, #100
 709 00ee 1900     		movs	r1, r3
 710 00f0 0120     		movs	r0, #1
 711 00f2 FFF7FEFF 		bl	I2C_I2CMasterReadByte
 712 00f6 0200     		movs	r2, r0
 713 00f8 0F23     		movs	r3, #15
 714 00fa FB18     		adds	r3, r7, r3
 715 00fc 1A70     		strb	r2, [r3]
 716              	.L25:
 499:bma2x2_support.c ****     }
 500:bma2x2_support.c ****     
 501:bma2x2_support.c ****     /* Send STOP */
 502:bma2x2_support.c ****     I2C_I2CMasterSendStop(I2C_TIMEOUT);
 717              		.loc 1 502 0
 718 00fe 6420     		movs	r0, #100
 719 0100 FFF7FEFF 		bl	I2C_I2CMasterSendStop
 503:bma2x2_support.c ****     
 504:bma2x2_support.c ****     return rslt;
 720              		.loc 1 504 0
 721 0104 0F23     		movs	r3, #15
 722 0106 FB18     		adds	r3, r7, r3
 723 0108 1B78     		ldrb	r3, [r3]
 724 010a 5BB2     		sxtb	r3, r3
 505:bma2x2_support.c **** }
 725              		.loc 1 505 0
 726 010c 1800     		movs	r0, r3
 727 010e BD46     		mov	sp, r7
 728 0110 05B0     		add	sp, sp, #20
 729              		@ sp needed
 730 0112 90BD     		pop	{r4, r7, pc}
 731              		.cfi_endproc
 732              	.LFE39:
 733              		.size	BMA2x2_I2C_bus_read, .-BMA2x2_I2C_bus_read
 734              		.section	.text.BMA2x2_delay_msek,"ax",%progbits
 735              		.align	2
 736              		.global	BMA2x2_delay_msek
 737              		.code	16
 738              		.thumb_func
 739              		.type	BMA2x2_delay_msek, %function
 740              	BMA2x2_delay_msek:
 741              	.LFB40:
 506:bma2x2_support.c **** 
 507:bma2x2_support.c **** 
 508:bma2x2_support.c **** 
ARM GAS  C:\Users\Tudor\AppData\Local\Temp\cc9veP4D.s 			page 23


 509:bma2x2_support.c **** /*	Brief : The delay routine
 510:bma2x2_support.c ****  *	\param : delay in ms
 511:bma2x2_support.c **** */
 512:bma2x2_support.c **** void BMA2x2_delay_msek(u32 msek)
 513:bma2x2_support.c **** {
 742              		.loc 1 513 0
 743              		.cfi_startproc
 744              		@ args = 0, pretend = 0, frame = 8
 745              		@ frame_needed = 1, uses_anonymous_args = 0
 746 0000 80B5     		push	{r7, lr}
 747              		.cfi_def_cfa_offset 8
 748              		.cfi_offset 7, -8
 749              		.cfi_offset 14, -4
 750 0002 82B0     		sub	sp, sp, #8
 751              		.cfi_def_cfa_offset 16
 752 0004 00AF     		add	r7, sp, #0
 753              		.cfi_def_cfa_register 7
 754 0006 7860     		str	r0, [r7, #4]
 514:bma2x2_support.c **** 	/*Here you can write your own delay routine*/
 515:bma2x2_support.c ****     CyDelay(msek);
 755              		.loc 1 515 0
 756 0008 7B68     		ldr	r3, [r7, #4]
 757 000a 1800     		movs	r0, r3
 758 000c FFF7FEFF 		bl	CyDelay
 516:bma2x2_support.c **** }
 759              		.loc 1 516 0
 760 0010 C046     		nop
 761 0012 BD46     		mov	sp, r7
 762 0014 02B0     		add	sp, sp, #8
 763              		@ sp needed
 764 0016 80BD     		pop	{r7, pc}
 765              		.cfi_endproc
 766              	.LFE40:
 767              		.size	BMA2x2_delay_msek, .-BMA2x2_delay_msek
 768              		.text
 769              	.Letext0:
 770              		.file 2 "bma2x2.h"
 771              		.file 3 "c:\\program files (x86)\\cypress\\psoc creator\\4.2\\psoc creator\\import\\gnu\\arm\\5.4.
 772              		.file 4 "c:\\program files (x86)\\cypress\\psoc creator\\4.2\\psoc creator\\import\\gnu\\arm\\5.4.