ARM GAS  C:\Users\Tudor\AppData\Local\Temp\cc3oK69c.s 			page 1


   1              		.syntax unified
   2              		.cpu cortex-m0
   3              		.fpu softvfp
   4              		.eabi_attribute 20, 1
   5              		.eabi_attribute 21, 1
   6              		.eabi_attribute 23, 3
   7              		.eabi_attribute 24, 1
   8              		.eabi_attribute 25, 1
   9              		.eabi_attribute 26, 1
  10              		.eabi_attribute 30, 6
  11              		.eabi_attribute 34, 0
  12              		.eabi_attribute 18, 4
  13              		.thumb
  14              		.syntax unified
  15              		.file	"main.c"
  16              		.text
  17              	.Ltext0:
  18              		.cfi_sections	.debug_frame
  19              		.global	acc_flag
  20              		.bss
  21              		.type	acc_flag, %object
  22              		.size	acc_flag, 1
  23              	acc_flag:
  24 0000 00       		.space	1
  25              		.section	.text.PIN1_Handler,"ax",%progbits
  26              		.align	2
  27              		.global	PIN1_Handler
  28              		.code	16
  29              		.thumb_func
  30              		.type	PIN1_Handler, %function
  31              	PIN1_Handler:
  32              	.LFB35:
  33              		.file 1 "main.c"
   1:main.c        **** 
   2:main.c        **** #include "project.h"
   3:main.c        **** #include "bma2x2.h"
   4:main.c        **** #include "bma2x2_support.h"
   5:main.c        **** #include "BLE_functions.h"
   6:main.c        **** 
   7:main.c        **** 
   8:main.c        **** /**
   9:main.c        **** Defines for states of the LED 
  10:main.c        **** And the accident
  11:main.c        **** */
  12:main.c        **** #define LED_ON                                (0u)
  13:main.c        **** #define LED_OFF                               (1u)
  14:main.c        **** #define NO_ACC_STATE                          (0u)
  15:main.c        **** #define ACC_STATE                             (1u)
  16:main.c        **** 
  17:main.c        **** /*Global variable used to know if an accident took place or not*/
  18:main.c        **** volatile uint8 acc_flag = NO_ACC_STATE; 
  19:main.c        **** 
  20:main.c        **** /*Interrupt function for PIN1 which is linked to the accelerometer*/
  21:main.c        **** CY_ISR (PIN1_Handler)
  22:main.c        **** {
  34              		.loc 1 22 0
  35              		.cfi_startproc
ARM GAS  C:\Users\Tudor\AppData\Local\Temp\cc3oK69c.s 			page 2


  36              		@ args = 0, pretend = 0, frame = 8
  37              		@ frame_needed = 1, uses_anonymous_args = 0
  38 0000 80B5     		push	{r7, lr}
  39              		.cfi_def_cfa_offset 8
  40              		.cfi_offset 7, -8
  41              		.cfi_offset 14, -4
  42 0002 82B0     		sub	sp, sp, #8
  43              		.cfi_def_cfa_offset 16
  44 0004 00AF     		add	r7, sp, #0
  45              		.cfi_def_cfa_register 7
  23:main.c        ****     /*Setting the drive mode for the LED1 to Strong Drive in order to wake it up from High Impedanc
  24:main.c        ****     LED1_SetDriveMode(LED1_DM_STRONG);
  46              		.loc 1 24 0
  47 0006 0620     		movs	r0, #6
  48 0008 FFF7FEFF 		bl	LED1_SetDriveMode
  25:main.c        ****     
  26:main.c        ****     /*Turning the LED on and changing the flag to 1 because an accident occurred*/
  27:main.c        ****     LED1_Write(LED_ON);
  49              		.loc 1 27 0
  50 000c 0020     		movs	r0, #0
  51 000e FFF7FEFF 		bl	LED1_Write
  28:main.c        ****     acc_flag = ACC_STATE;
  52              		.loc 1 28 0
  53 0012 094B     		ldr	r3, .L2
  54 0014 0122     		movs	r2, #1
  55 0016 1A70     		strb	r2, [r3]
  29:main.c        ****     
  30:main.c        ****     /*Making a soft reset to the accelerometer after the accident occurred*/
  31:main.c        ****     u8 soft_reset = 0xB6;
  56              		.loc 1 31 0
  57 0018 FB1D     		adds	r3, r7, #7
  58 001a B622     		movs	r2, #182
  59 001c 1A70     		strb	r2, [r3]
  32:main.c        ****     bma2x2_write_reg(0x14,&soft_reset,1);
  60              		.loc 1 32 0
  61 001e FB1D     		adds	r3, r7, #7
  62 0020 0122     		movs	r2, #1
  63 0022 1900     		movs	r1, r3
  64 0024 1420     		movs	r0, #20
  65 0026 FFF7FEFF 		bl	bma2x2_write_reg
  33:main.c        ****     
  34:main.c        ****     /*Clearing the dedicated interrupt on PIN1 which is linked to the accelerometer*/
  35:main.c        ****     PIN1_ClearInterrupt();
  66              		.loc 1 35 0
  67 002a FFF7FEFF 		bl	PIN1_ClearInterrupt
  36:main.c        **** }
  68              		.loc 1 36 0
  69 002e C046     		nop
  70 0030 BD46     		mov	sp, r7
  71 0032 02B0     		add	sp, sp, #8
  72              		@ sp needed
  73 0034 80BD     		pop	{r7, pc}
  74              	.L3:
  75 0036 C046     		.align	2
  76              	.L2:
  77 0038 00000000 		.word	acc_flag
  78              		.cfi_endproc
ARM GAS  C:\Users\Tudor\AppData\Local\Temp\cc3oK69c.s 			page 3


  79              	.LFE35:
  80              		.size	PIN1_Handler, .-PIN1_Handler
  81              		.section	.text.main,"ax",%progbits
  82              		.align	2
  83              		.global	main
  84              		.code	16
  85              		.thumb_func
  86              		.type	main, %function
  87              	main:
  88              	.LFB36:
  37:main.c        **** 
  38:main.c        **** int main (void)
  39:main.c        **** {
  89              		.loc 1 39 0
  90              		.cfi_startproc
  91              		@ args = 0, pretend = 0, frame = 32
  92              		@ frame_needed = 1, uses_anonymous_args = 0
  93 0000 80B5     		push	{r7, lr}
  94              		.cfi_def_cfa_offset 8
  95              		.cfi_offset 7, -8
  96              		.cfi_offset 14, -4
  97 0002 88B0     		sub	sp, sp, #32
  98              		.cfi_def_cfa_offset 40
  99 0004 00AF     		add	r7, sp, #0
 100              		.cfi_def_cfa_register 7
  40:main.c        ****     /*Initializing the BLE system, starting the I2C and PIN1 dedicated interrupt*/
  41:main.c        ****     InitializeSystem();
 101              		.loc 1 41 0
 102 0006 FFF7FEFF 		bl	InitializeSystem
  42:main.c        ****     I2C_Start();
 103              		.loc 1 42 0
 104 000a FFF7FEFF 		bl	I2C_Start
  43:main.c        ****     PIN1_ISR_StartEx(PIN1_Handler);
 105              		.loc 1 43 0
 106 000e 264B     		ldr	r3, .L10
 107 0010 1800     		movs	r0, r3
 108 0012 FFF7FEFF 		bl	PIN1_ISR_StartEx
  44:main.c        ****     
  45:main.c        ****     /*Declaring the bma2x2_t struct which will be used throughout the program*/
  46:main.c        ****     struct bma2x2_t bma2x2;
  47:main.c        ****     
  48:main.c        ****     /**
  49:main.c        ****     Declaring and initializing a variable which will be used to demonstrate
  50:main.c        ****     How the accelerometer reads a certain register and what is the output
  51:main.c        ****     */
  52:main.c        ****     u8 reg_data = 0;
 109              		.loc 1 52 0
 110 0016 FB1C     		adds	r3, r7, #3
 111 0018 0022     		movs	r2, #0
 112 001a 1A70     		strb	r2, [r3]
  53:main.c        ****     
  54:main.c        ****     /*Using the com_rslt variable to test the state of the accelerometer and see if everything is w
  55:main.c        ****     BMA2x2_RETURN_FUNCTION_TYPE com_rslt = ERROR;
 113              		.loc 1 55 0
 114 001c 1F23     		movs	r3, #31
 115 001e FB18     		adds	r3, r7, r3
 116 0020 FF22     		movs	r2, #255
ARM GAS  C:\Users\Tudor\AppData\Local\Temp\cc3oK69c.s 			page 4


 117 0022 1A70     		strb	r2, [r3]
  56:main.c        ****     com_rslt = bma2x2_shock_setup(&bma2x2);
 118              		.loc 1 56 0
 119 0024 3B1D     		adds	r3, r7, #4
 120 0026 1800     		movs	r0, r3
 121 0028 FFF7FEFF 		bl	bma2x2_shock_setup
 122 002c 0200     		movs	r2, r0
 123 002e 1F23     		movs	r3, #31
 124 0030 FB18     		adds	r3, r7, r3
 125 0032 1A70     		strb	r2, [r3]
  57:main.c        ****     
  58:main.c        ****     /*If an error occurrs in the initial setup the LED will start to flash every quarter of a secon
  59:main.c        ****     if (com_rslt!=0)
 126              		.loc 1 59 0
 127 0034 1F23     		movs	r3, #31
 128 0036 FB18     		adds	r3, r7, r3
 129 0038 1B78     		ldrb	r3, [r3]
 130 003a 5BB2     		sxtb	r3, r3
 131 003c 002B     		cmp	r3, #0
 132 003e 0CD0     		beq	.L5
 133              	.L6:
  60:main.c        ****     {
  61:main.c        ****         for(;;)
  62:main.c        ****         {
  63:main.c        ****             LED1_Write(!LED1_Read());
 134              		.loc 1 63 0 discriminator 1
 135 0040 FFF7FEFF 		bl	LED1_Read
 136 0044 0300     		movs	r3, r0
 137 0046 5A42     		rsbs	r2, r3, #0
 138 0048 5341     		adcs	r3, r3, r2
 139 004a DBB2     		uxtb	r3, r3
 140 004c 1800     		movs	r0, r3
 141 004e FFF7FEFF 		bl	LED1_Write
  64:main.c        ****             CyDelay(250);
 142              		.loc 1 64 0 discriminator 1
 143 0052 FA20     		movs	r0, #250
 144 0054 FFF7FEFF 		bl	CyDelay
  65:main.c        ****         }
 145              		.loc 1 65 0 discriminator 1
 146 0058 F2E7     		b	.L6
 147              	.L5:
  66:main.c        ****     }
  67:main.c        ****     
  68:main.c        ****     /*Function used to demonstrate how the accelerometer reads a certain register and what is the o
  69:main.c        ****     bma2x2_read_reg(0x00,&reg_data,1);
 148              		.loc 1 69 0
 149 005a FB1C     		adds	r3, r7, #3
 150 005c 0122     		movs	r2, #1
 151 005e 1900     		movs	r1, r3
 152 0060 0020     		movs	r0, #0
 153 0062 FFF7FEFF 		bl	bma2x2_read_reg
 154              	.L9:
  70:main.c        ****     
  71:main.c        ****     /*Stoping the I2C component after we don't need it anymore*/
  72:main.c        ****     //I2C_Stop();
  73:main.c        ****     
  74:main.c        ****     for(;;)
ARM GAS  C:\Users\Tudor\AppData\Local\Temp\cc3oK69c.s 			page 5


  75:main.c        ****     {
  76:main.c        ****         /*If no accident has occurred yet the LED will flash rapidly while in Strong Drive mode*/
  77:main.c        ****         if (!acc_flag)
 155              		.loc 1 77 0
 156 0066 114B     		ldr	r3, .L10+4
 157 0068 1B78     		ldrb	r3, [r3]
 158 006a DBB2     		uxtb	r3, r3
 159 006c 002B     		cmp	r3, #0
 160 006e 0BD1     		bne	.L7
  78:main.c        ****         {
  79:main.c        ****             LED1_SetDriveMode(LED1_DM_STRONG);
 161              		.loc 1 79 0
 162 0070 0620     		movs	r0, #6
 163 0072 FFF7FEFF 		bl	LED1_SetDriveMode
  80:main.c        ****             LED1_Write(!LED1_Read());
 164              		.loc 1 80 0
 165 0076 FFF7FEFF 		bl	LED1_Read
 166 007a 0300     		movs	r3, r0
 167 007c 5A42     		rsbs	r2, r3, #0
 168 007e 5341     		adcs	r3, r3, r2
 169 0080 DBB2     		uxtb	r3, r3
 170 0082 1800     		movs	r0, r3
 171 0084 FFF7FEFF 		bl	LED1_Write
 172              	.L7:
  81:main.c        ****         }
  82:main.c        ****         
  83:main.c        ****         /*The BLE will process the events and Payload will be updated depending on the state of the
  84:main.c        ****         CyBle_ProcessEvents();
 173              		.loc 1 84 0
 174 0088 FFF7FEFF 		bl	CyBle_ProcessEvents
  85:main.c        ****         DynamicADVPayloadUpdate();
 175              		.loc 1 85 0
 176 008c FFF7FEFF 		bl	DynamicADVPayloadUpdate
  86:main.c        ****         
  87:main.c        ****         /*For Low-Power purposes, if no accident has occurred yet, the LED used will enter in High 
  88:main.c        ****         if (!acc_flag)
 177              		.loc 1 88 0
 178 0090 064B     		ldr	r3, .L10+4
 179 0092 1B78     		ldrb	r3, [r3]
 180 0094 DBB2     		uxtb	r3, r3
 181 0096 002B     		cmp	r3, #0
 182 0098 02D1     		bne	.L8
  89:main.c        ****         {
  90:main.c        ****             LED1_SetDriveMode(LED1_DM_ALG_HIZ);
 183              		.loc 1 90 0
 184 009a 0020     		movs	r0, #0
 185 009c FFF7FEFF 		bl	LED1_SetDriveMode
 186              	.L8:
  91:main.c        ****         }
  92:main.c        ****         
  93:main.c        ****         /*The BLE component will also enter Low-Power mode the conserve energy as much as possible*
  94:main.c        ****         EnterLowPowerMode();
 187              		.loc 1 94 0
 188 00a0 FFF7FEFF 		bl	EnterLowPowerMode
  95:main.c        ****     }
 189              		.loc 1 95 0
 190 00a4 DFE7     		b	.L9
ARM GAS  C:\Users\Tudor\AppData\Local\Temp\cc3oK69c.s 			page 6


 191              	.L11:
 192 00a6 C046     		.align	2
 193              	.L10:
 194 00a8 00000000 		.word	PIN1_Handler
 195 00ac 00000000 		.word	acc_flag
 196              		.cfi_endproc
 197              	.LFE36:
 198              		.size	main, .-main
 199              		.text
 200              	.Letext0:
 201              		.file 2 "bma2x2.h"
 202              		.file 3 "Generated_Source\\PSoC4/cytypes.h"
 203              		.file 4 "Generated_Source\\PSoC4/BLE_Stack.h"